

Microchip MPLAB XC8 Assembler V2.32 build 20210201212658 
                                                                                               Mon Apr 05 21:18:22 2021

Microchip MPLAB XC8 C Compiler v2.32 (Free license) build 20210201212658 Og1 
     1                           	processor	18F4520
     2                           	fnconf	rparam,??,?,0
     3                           	pagewidth 120
     4                           	opt	flic
     5                           	psect	smallconst,global,reloc=2,class=SMALLCONST,delta=1,noexec
     6                           	psect	cinit,global,reloc=2,class=CODE,delta=1
     7                           	psect	bssCOMRAM,global,class=COMRAM,space=1,delta=1,lowdata,noexec
     8                           	psect	bssBANK0,global,class=BANK0,space=1,delta=1,lowdata,noexec
     9                           	psect	cstackBANK0,global,class=BANK0,space=1,delta=1,lowdata,noexec
    10                           	psect	cstackCOMRAM,global,class=COMRAM,space=1,delta=1,lowdata,noexec
    11                           	psect	text0,global,reloc=2,class=CODE,delta=1
    12                           	psect	text1,global,reloc=2,class=CODE,delta=1
    13                           	psect	text2,global,reloc=2,class=CODE,delta=1,group=2
    14                           	psect	text3,global,reloc=2,class=CODE,delta=1
    15                           	psect	text4,global,reloc=2,class=CODE,delta=1
    16                           	psect	text5,global,reloc=2,class=CODE,delta=1,group=1
    17                           	psect	text6,global,reloc=2,class=CODE,delta=1,group=1
    18                           	psect	text7,global,reloc=2,class=CODE,delta=1
    19                           	psect	text8,global,reloc=2,class=CODE,delta=1
    20                           	psect	text9,global,reloc=2,class=CODE,delta=1
    21                           	psect	text10,global,reloc=2,class=CODE,delta=1
    22                           	psect	text11,global,reloc=2,class=CODE,delta=1
    23                           	psect	text12,global,reloc=2,class=CODE,delta=1
    24                           	psect	text13,global,reloc=2,class=CODE,delta=1,group=1
    25                           	psect	text14,global,reloc=2,class=CODE,delta=1,group=1
    26                           	psect	text15,global,reloc=2,class=CODE,delta=1,group=1
    27                           	psect	text16,global,reloc=2,class=CODE,delta=1,group=1
    28                           	psect	text17,global,reloc=2,class=CODE,delta=1,group=1
    29                           	psect	intcode,global,reloc=2,class=CODE,delta=1
    30                           	psect	intcode_body,global,reloc=2,class=CODE,delta=1
    31                           	psect	text19,global,reloc=2,class=CODE,delta=1
    32                           	psect	text20,global,reloc=2,class=CODE,delta=1
    33                           	psect	text21,global,reloc=2,class=CODE,delta=1
    34                           	psect	text22,global,reloc=2,class=CODE,delta=1
    35                           	psect	text23,global,reloc=2,class=CODE,delta=1
    36                           	psect	text24,global,reloc=2,class=CODE,delta=1
    37                           	psect	intsave_regs,global,class=BIGRAM,space=1,delta=1,noexec
    38                           	psect	rparam,global,class=COMRAM,space=1,delta=1,noexec
    39                           	psect	temp,global,ovrld,common,class=COMRAM,space=1,delta=1
    40                           	psect	idloc,global,abs,ovrld,class=IDLOC,space=5,delta=1,noexec
    41                           	psect	config,global,abs,ovrld,class=CONFIG,space=4,delta=1,noexec
    42  0000                     
    43                           ; Version 2.20
    44                           ; Generated 12/02/2020 GMT
    45                           ; 
    46                           ; Copyright © 2020, Microchip Technology Inc. and its subsidiaries ("Microchip")
    47                           ; All rights reserved.
    48                           ; 
    49                           ; This software is developed by Microchip Technology Inc. and its subsidiaries ("Microch
      +                          ip").
    50                           ; 
    51                           ; Redistribution and use in source and binary forms, with or without modification, are
    52                           ; permitted provided that the following conditions are met:
    53                           ; 
    54                           ;     1. Redistributions of source code must retain the above copyright notice, this lis
      +                          t of
    55                           ;        conditions and the following disclaimer.
    56                           ; 
    57                           ;     2. Redistributions in binary form must reproduce the above copyright notice, this 
      +                          list
    58                           ;        of conditions and the following disclaimer in the documentation and/or other
    59                           ;        materials provided with the distribution.
    60                           ; 
    61                           ;     3. Microchip's name may not be used to endorse or promote products derived from th
      +                          is
    62                           ;        software without specific prior written permission.
    63                           ; 
    64                           ; THIS SOFTWARE IS PROVIDED BY MICROCHIP "AS IS" AND ANY EXPRESS OR IMPLIED WARRANTIES,
    65                           ; INCLUDING, BUT NOT LIMITED TO, THE IMPLIED WARRANTIES OF MERCHANTABILITY AND FITNESS F
      +                          OR
    66                           ; PURPOSE ARE DISCLAIMED.  IN NO EVENT SHALL MICROCHIP BE LIABLE FOR ANY DIRECT, INDIREC
      +                          T,
    67                           ; INCIDENTAL, SPECIAL, EXEMPLARY, OR CONSEQUENTIAL DAMAGES (INCLUDING BUT NOT LIMITED TO
    68                           ; PROCUREMENT OF SUBSTITUTE GOODS OR SERVICES; LOSS OF USE, DATA OR PROFITS; OR BUSINESS
    69                           ; INTERRUPTION) HOWSOEVER CAUSED AND ON ANY THEORY OF LIABILITY, WHETHER IN CONTRACT, ST
      +                          RICT
    70                           ; LIABILITY, OR TORT (INCLUDING NEGLIGENCE OR OTHERWISE) ARISING IN ANY WAY OUT OF THE U
      +                          SE OF
    71                           ; THIS SOFTWARE, EVEN IF ADVISED OF THE POSSIBILITY OF SUCH DAMAGE.
    72                           ; 
    73                           ; 
    74                           ; Code-generator required, PIC18F4520 Definitions
    75                           ; 
    76                           ; SFR Addresses
    77  0000                     _PORTCbits	set	3970
    78  0000                     _TRISCbits	set	3988
    79  0000                     _PORTD	set	3971
    80  0000                     _PORTC	set	3970
    81  0000                     _TRISD	set	3989
    82  0000                     _TRISC	set	3988
    83  0000                     _PORTBbits	set	3969
    84  0000                     _INTCON3bits	set	4080
    85  0000                     _INTCON3	set	4080
    86  0000                     _INTCONbits	set	4082
    87  0000                     _INTCON	set	4082
    88  0000                     _PORTB	set	3969
    89  0000                     _CCPR1L	set	4030
    90  0000                     _PR2	set	4043
    91  0000                     _TMR1H	set	4047
    92  0000                     _TMR1L	set	4046
    93  0000                     _T1CON	set	4045
    94  0000                     _INTEDG2	set	32652
    95  0000                     _INTEDG1	set	32653
    96  0000                     _INTEDG0	set	32654
    97  0000                     _CCP1Y	set	32236
    98  0000                     _CCP1X	set	32237
    99  0000                     _TRISC2	set	31906
   100  0000                     _TMR2ON	set	32338
   101  0000                     _T2CKPS1	set	32337
   102  0000                     _T2CKPS0	set	32336
   103  0000                     _CCP1M2	set	32234
   104  0000                     _CCP1M3	set	32235
   105                           
   106                           	psect	smallconst
   107  000600                     __psmallconst:
   108                           	callstack 0
   109  000600  00                 	db	0
   110  000601                     STR_1:
   111  000601  20                 	db	32
   112  000602  63                 	db	99	;'c'
   113  000603  68                 	db	104	;'h'
   114  000604  75                 	db	117	;'u'
   115  000605  63                 	db	99	;'c'
   116  000606  20                 	db	32
   117  000607  32                 	db	50	;'2'
   118  000608  33                 	db	51	;'3'
   119  000609  20                 	db	32
   120  00060A  6D                 	db	109	;'m'
   121  00060B  75                 	db	117	;'u'
   122  00060C  6E                 	db	110	;'n'
   123  00060D  67                 	db	103	;'g'
   124  00060E  00                 	db	0
   125  00060F  00                 	db	0	; dummy byte at the end
   126  0000                     
   127                           ; #config settings
   128                           
   129                           	psect	cinit
   130  0024D6                     __pcinit:
   131                           	callstack 0
   132  0024D6                     start_initialization:
   133                           	callstack 0
   134  0024D6                     __initialization:
   135                           	callstack 0
   136                           
   137                           ; Clear objects allocated to BANK0 (4 bytes)
   138  0024D6  0100               	movlb	0
   139  0024D8  6BE9               	clrf	(__pbssBANK0+3)& (0+255),b
   140  0024DA  6BE8               	clrf	(__pbssBANK0+2)& (0+255),b
   141  0024DC  6BE7               	clrf	(__pbssBANK0+1)& (0+255),b
   142  0024DE  6BE6               	clrf	__pbssBANK0& (0+255),b
   143                           
   144                           ; Clear objects allocated to COMRAM (2 bytes)
   145  0024E0  6A62               	clrf	(__pbssCOMRAM+1)& (0+255),c
   146  0024E2  6A61               	clrf	__pbssCOMRAM& (0+255),c
   147  0024E4                     end_of_initialization:
   148                           	callstack 0
   149  0024E4                     __end_of__initialization:
   150                           	callstack 0
   151  0024E4  9063               	bcf	int$flags,0,c	;clear compiler interrupt flag (level 1)
   152  0024E6  9263               	bcf	int$flags,1,c	;clear compiler interrupt flag (level 2)
   153  0024E8  0E00               	movlw	low (__Lsmallconst shr (0+16))
   154  0024EA  6EF8               	movwf	tblptru,c
   155  0024EC  0E06               	movlw	high __Lsmallconst
   156  0024EE  6EF7               	movwf	tblptrh,c
   157  0024F0  0100               	movlb	0
   158  0024F2  EFCA  F010         	goto	_main	;jump to C main() function
   159                           
   160                           	psect	bssCOMRAM
   161  000061                     __pbssCOMRAM:
   162                           	callstack 0
   163  000061                     _state:
   164                           	callstack 0
   165  000061                     	ds	2
   166                           
   167                           	psect	bssBANK0
   168  0000E6                     __pbssBANK0:
   169                           	callstack 0
   170  0000E6                     _u32TempFrequency:
   171                           	callstack 0
   172  0000E6                     	ds	4
   173                           
   174                           	psect	cstackBANK0
   175  000080                     __pcstackBANK0:
   176                           	callstack 0
   177  000080                     ??_lcd_command:
   178  000080                     ??_lcd_char:
   179  000080                     ?_strlen:
   180                           	callstack 0
   181  000080                     ?___wmul:
   182                           	callstack 0
   183  000080                     ?___awdiv:
   184                           	callstack 0
   185  000080                     ?___aldiv:
   186                           	callstack 0
   187  000080                     ___wmul@multiplier:
   188                           	callstack 0
   189  000080                     ___awdiv@dividend:
   190                           	callstack 0
   191  000080                     strlen@s:
   192                           	callstack 0
   193  000080                     ___aldiv@dividend:
   194                           	callstack 0
   195                           
   196                           ; 4 bytes @ 0x0
   197  000080                     	ds	1
   198  000081                     lcd_command@cmnd:
   199                           	callstack 0
   200  000081                     lcd_char@data:
   201                           	callstack 0
   202                           
   203                           ; 1 bytes @ 0x1
   204  000081                     	ds	1
   205  000082                     ___wmul@multiplicand:
   206                           	callstack 0
   207  000082                     ___awdiv@divisor:
   208                           	callstack 0
   209  000082                     strlen@a:
   210                           	callstack 0
   211                           
   212                           ; 2 bytes @ 0x2
   213  000082                     	ds	2
   214  000084                     ___awdiv@counter:
   215                           	callstack 0
   216  000084                     lcd_string@str:
   217                           	callstack 0
   218  000084                     ___wmul@product:
   219                           	callstack 0
   220  000084                     ___aldiv@divisor:
   221                           	callstack 0
   222                           
   223                           ; 4 bytes @ 0x4
   224  000084                     	ds	1
   225  000085                     ___awdiv@sign:
   226                           	callstack 0
   227                           
   228                           ; 1 bytes @ 0x5
   229  000085                     	ds	1
   230  000086                     ??_lcd_string:
   231  000086                     ___awdiv@quotient:
   232                           	callstack 0
   233                           
   234                           ; 2 bytes @ 0x6
   235  000086                     	ds	2
   236  000088                     ___aldiv@counter:
   237                           	callstack 0
   238  000088                     lcd_string@i:
   239                           	callstack 0
   240  000088                     lcd_number@num:
   241                           	callstack 0
   242                           
   243                           ; 2 bytes @ 0x8
   244  000088                     	ds	1
   245  000089                     ___aldiv@sign:
   246                           	callstack 0
   247                           
   248                           ; 1 bytes @ 0x9
   249  000089                     	ds	1
   250  00008A                     lcd_number@num_display:
   251                           	callstack 0
   252  00008A                     ___aldiv@quotient:
   253                           	callstack 0
   254                           
   255                           ; 4 bytes @ 0xA
   256  00008A                     	ds	2
   257  00008C                     lcd_number@num_test:
   258                           	callstack 0
   259                           
   260                           ; 2 bytes @ 0xC
   261  00008C                     	ds	2
   262  00008E                     ?___xxtofl:
   263                           	callstack 0
   264  00008E                     lcd_number@num_div:
   265                           	callstack 0
   266  00008E                     PWM1_Init@u32Frequency:
   267                           	callstack 0
   268  00008E                     ___xxtofl@val:
   269                           	callstack 0
   270                           
   271                           ; 4 bytes @ 0xE
   272  00008E                     	ds	4
   273  000092                     ??_PWM1_Init:
   274  000092                     ??___xxtofl:
   275                           
   276                           ; 1 bytes @ 0x12
   277  000092                     	ds	4
   278  000096                     ___xxtofl@sign:
   279                           	callstack 0
   280                           
   281                           ; 1 bytes @ 0x16
   282  000096                     	ds	1
   283  000097                     ___xxtofl@exp:
   284                           	callstack 0
   285                           
   286                           ; 1 bytes @ 0x17
   287  000097                     	ds	1
   288  000098                     ___xxtofl@arg:
   289                           	callstack 0
   290                           
   291                           ; 4 bytes @ 0x18
   292  000098                     	ds	4
   293  00009C                     ?___fldiv:
   294                           	callstack 0
   295  00009C                     ___fldiv@b:
   296                           	callstack 0
   297                           
   298                           ; 4 bytes @ 0x1C
   299  00009C                     	ds	4
   300  0000A0                     ___fldiv@a:
   301                           	callstack 0
   302                           
   303                           ; 4 bytes @ 0x20
   304  0000A0                     	ds	4
   305  0000A4                     ??___fldiv:
   306                           
   307                           ; 1 bytes @ 0x24
   308  0000A4                     	ds	4
   309  0000A8                     ___fldiv@rem:
   310                           	callstack 0
   311                           
   312                           ; 4 bytes @ 0x28
   313  0000A8                     	ds	4
   314  0000AC                     ___fldiv@sign:
   315                           	callstack 0
   316                           
   317                           ; 1 bytes @ 0x2C
   318  0000AC                     	ds	1
   319  0000AD                     ___fldiv@new_exp:
   320                           	callstack 0
   321                           
   322                           ; 2 bytes @ 0x2D
   323  0000AD                     	ds	2
   324  0000AF                     ___fldiv@grs:
   325                           	callstack 0
   326                           
   327                           ; 4 bytes @ 0x2F
   328  0000AF                     	ds	4
   329  0000B3                     ___fldiv@bexp:
   330                           	callstack 0
   331                           
   332                           ; 1 bytes @ 0x33
   333  0000B3                     	ds	1
   334  0000B4                     ___fldiv@aexp:
   335                           	callstack 0
   336                           
   337                           ; 1 bytes @ 0x34
   338  0000B4                     	ds	1
   339  0000B5                     ?___flmul:
   340                           	callstack 0
   341  0000B5                     ___flmul@b:
   342                           	callstack 0
   343                           
   344                           ; 4 bytes @ 0x35
   345  0000B5                     	ds	4
   346  0000B9                     ___flmul@a:
   347                           	callstack 0
   348                           
   349                           ; 4 bytes @ 0x39
   350  0000B9                     	ds	4
   351  0000BD                     ??___flmul:
   352                           
   353                           ; 1 bytes @ 0x3D
   354  0000BD                     	ds	4
   355  0000C1                     ___flmul@sign:
   356                           	callstack 0
   357                           
   358                           ; 1 bytes @ 0x41
   359  0000C1                     	ds	1
   360  0000C2                     ___flmul@grs:
   361                           	callstack 0
   362                           
   363                           ; 4 bytes @ 0x42
   364  0000C2                     	ds	4
   365  0000C6                     ___flmul@aexp:
   366                           	callstack 0
   367                           
   368                           ; 1 bytes @ 0x46
   369  0000C6                     	ds	1
   370  0000C7                     ___flmul@bexp:
   371                           	callstack 0
   372                           
   373                           ; 1 bytes @ 0x47
   374  0000C7                     	ds	1
   375  0000C8                     ___flmul@prod:
   376                           	callstack 0
   377                           
   378                           ; 4 bytes @ 0x48
   379  0000C8                     	ds	4
   380  0000CC                     ___flmul@temp:
   381                           	callstack 0
   382                           
   383                           ; 2 bytes @ 0x4C
   384  0000CC                     	ds	2
   385  0000CE                     ?___fltol:
   386                           	callstack 0
   387  0000CE                     ___fltol@f1:
   388                           	callstack 0
   389                           
   390                           ; 4 bytes @ 0x4E
   391  0000CE                     	ds	4
   392  0000D2                     ??___fltol:
   393                           
   394                           ; 1 bytes @ 0x52
   395  0000D2                     	ds	4
   396  0000D6                     ___fltol@sign1:
   397                           	callstack 0
   398                           
   399                           ; 1 bytes @ 0x56
   400  0000D6                     	ds	1
   401  0000D7                     ___fltol@exp1:
   402                           	callstack 0
   403                           
   404                           ; 1 bytes @ 0x57
   405  0000D7                     	ds	1
   406  0000D8                     PWM1_Duty@duty:
   407                           	callstack 0
   408                           
   409                           ; 2 bytes @ 0x58
   410  0000D8                     	ds	2
   411  0000DA                     ??_PWM1_Duty:
   412                           
   413                           ; 1 bytes @ 0x5A
   414  0000DA                     	ds	4
   415  0000DE                     ??_main:
   416                           
   417                           ; 1 bytes @ 0x5E
   418  0000DE                     	ds	2
   419  0000E0                     main@cnt_pre:
   420                           	callstack 0
   421                           
   422                           ; 2 bytes @ 0x60
   423  0000E0                     	ds	2
   424  0000E2                     main@cnt_af:
   425                           	callstack 0
   426                           
   427                           ; 2 bytes @ 0x62
   428  0000E2                     	ds	2
   429  0000E4                     main@rate:
   430                           	callstack 0
   431                           
   432                           ; 2 bytes @ 0x64
   433  0000E4                     	ds	2
   434                           
   435                           	psect	cstackCOMRAM
   436  000001                     __pcstackCOMRAM:
   437                           	callstack 0
   438  000001                     ?i2___aldiv:
   439                           	callstack 0
   440  000001                     i2___aldiv@dividend:
   441                           	callstack 0
   442                           
   443                           ; 4 bytes @ 0x0
   444  000001                     	ds	4
   445  000005                     i2___aldiv@divisor:
   446                           	callstack 0
   447                           
   448                           ; 4 bytes @ 0x4
   449  000005                     	ds	4
   450  000009                     i2___aldiv@counter:
   451                           	callstack 0
   452                           
   453                           ; 1 bytes @ 0x8
   454  000009                     	ds	1
   455  00000A                     i2___aldiv@sign:
   456                           	callstack 0
   457                           
   458                           ; 1 bytes @ 0x9
   459  00000A                     	ds	1
   460  00000B                     i2___aldiv@quotient:
   461                           	callstack 0
   462                           
   463                           ; 4 bytes @ 0xA
   464  00000B                     	ds	4
   465  00000F                     ?i2___xxtofl:
   466                           	callstack 0
   467  00000F                     i2___xxtofl@val:
   468                           	callstack 0
   469                           
   470                           ; 4 bytes @ 0xE
   471  00000F                     	ds	4
   472  000013                     ??i2___xxtofl:
   473                           
   474                           ; 1 bytes @ 0x12
   475  000013                     	ds	4
   476  000017                     i2___xxtofl@sign:
   477                           	callstack 0
   478                           
   479                           ; 1 bytes @ 0x16
   480  000017                     	ds	1
   481  000018                     i2___xxtofl@exp:
   482                           	callstack 0
   483                           
   484                           ; 1 bytes @ 0x17
   485  000018                     	ds	1
   486  000019                     i2___xxtofl@arg:
   487                           	callstack 0
   488                           
   489                           ; 4 bytes @ 0x18
   490  000019                     	ds	4
   491  00001D                     ?i2___fldiv:
   492                           	callstack 0
   493  00001D                     i2___fldiv@b:
   494                           	callstack 0
   495                           
   496                           ; 4 bytes @ 0x1C
   497  00001D                     	ds	4
   498  000021                     i2___fldiv@a:
   499                           	callstack 0
   500                           
   501                           ; 4 bytes @ 0x20
   502  000021                     	ds	4
   503  000025                     ??i2___fldiv:
   504                           
   505                           ; 1 bytes @ 0x24
   506  000025                     	ds	4
   507  000029                     i2___fldiv@rem:
   508                           	callstack 0
   509                           
   510                           ; 4 bytes @ 0x28
   511  000029                     	ds	4
   512  00002D                     i2___fldiv@sign:
   513                           	callstack 0
   514                           
   515                           ; 1 bytes @ 0x2C
   516  00002D                     	ds	1
   517  00002E                     i2___fldiv@new_exp:
   518                           	callstack 0
   519                           
   520                           ; 2 bytes @ 0x2D
   521  00002E                     	ds	2
   522  000030                     i2___fldiv@grs:
   523                           	callstack 0
   524                           
   525                           ; 4 bytes @ 0x2F
   526  000030                     	ds	4
   527  000034                     i2___fldiv@bexp:
   528                           	callstack 0
   529                           
   530                           ; 1 bytes @ 0x33
   531  000034                     	ds	1
   532  000035                     i2___fldiv@aexp:
   533                           	callstack 0
   534                           
   535                           ; 1 bytes @ 0x34
   536  000035                     	ds	1
   537  000036                     ?i2___flmul:
   538                           	callstack 0
   539  000036                     i2___flmul@b:
   540                           	callstack 0
   541                           
   542                           ; 4 bytes @ 0x35
   543  000036                     	ds	4
   544  00003A                     i2___flmul@a:
   545                           	callstack 0
   546                           
   547                           ; 4 bytes @ 0x39
   548  00003A                     	ds	4
   549  00003E                     ??i2___flmul:
   550                           
   551                           ; 1 bytes @ 0x3D
   552  00003E                     	ds	4
   553  000042                     i2___flmul@sign:
   554                           	callstack 0
   555                           
   556                           ; 1 bytes @ 0x41
   557  000042                     	ds	1
   558  000043                     i2___flmul@grs:
   559                           	callstack 0
   560                           
   561                           ; 4 bytes @ 0x42
   562  000043                     	ds	4
   563  000047                     i2___flmul@aexp:
   564                           	callstack 0
   565                           
   566                           ; 1 bytes @ 0x46
   567  000047                     	ds	1
   568  000048                     i2___flmul@bexp:
   569                           	callstack 0
   570                           
   571                           ; 1 bytes @ 0x47
   572  000048                     	ds	1
   573  000049                     i2___flmul@prod:
   574                           	callstack 0
   575                           
   576                           ; 4 bytes @ 0x48
   577  000049                     	ds	4
   578  00004D                     i2___flmul@temp:
   579                           	callstack 0
   580                           
   581                           ; 2 bytes @ 0x4C
   582  00004D                     	ds	2
   583  00004F                     ?i2___fltol:
   584                           	callstack 0
   585  00004F                     i2___fltol@f1:
   586                           	callstack 0
   587                           
   588                           ; 4 bytes @ 0x4E
   589  00004F                     	ds	4
   590  000053                     ??i2___fltol:
   591                           
   592                           ; 1 bytes @ 0x52
   593  000053                     	ds	4
   594  000057                     i2___fltol@sign1:
   595                           	callstack 0
   596                           
   597                           ; 1 bytes @ 0x56
   598  000057                     	ds	1
   599  000058                     i2___fltol@exp1:
   600                           	callstack 0
   601                           
   602                           ; 1 bytes @ 0x57
   603  000058                     	ds	1
   604  000059                     i2PWM1_Duty@duty:
   605                           	callstack 0
   606                           
   607                           ; 2 bytes @ 0x58
   608  000059                     	ds	2
   609  00005B                     ??i2_PWM1_Duty:
   610                           
   611                           ; 1 bytes @ 0x5A
   612  00005B                     	ds	4
   613  00005F                     ??_funtion:
   614                           
   615                           ; 1 bytes @ 0x5E
   616  00005F                     	ds	2
   617                           
   618 ;;
   619 ;;Main: autosize = 0, tempsize = 2, incstack = 0, save=0
   620 ;;
   621 ;; *************** function _main *****************
   622 ;; Defined at:
   623 ;;		line 291 in file "newmain.c"
   624 ;; Parameters:    Size  Location     Type
   625 ;;		None
   626 ;; Auto vars:     Size  Location     Type
   627 ;;  rate            2  100[BANK0 ] unsigned int 
   628 ;;  cnt_af          2   98[BANK0 ] unsigned int 
   629 ;;  cnt_pre         2   96[BANK0 ] unsigned int 
   630 ;;  x               1    0        unsigned char 
   631 ;; Return value:  Size  Location     Type
   632 ;;                  1    wreg      void 
   633 ;; Registers used:
   634 ;;		wreg, status,2, status,0, tblptrl, tblptrh, tblptru, prodl, prodh, cstack
   635 ;; Tracked objects:
   636 ;;		On entry : 0/0
   637 ;;		On exit  : 0/0
   638 ;;		Unchanged: 0/0
   639 ;; Data sizes:     COMRAM   BANK0   BANK1   BANK2   BANK3   BANK4   BANK5
   640 ;;      Params:         0       0       0       0       0       0       0
   641 ;;      Locals:         0       6       0       0       0       0       0
   642 ;;      Temps:          0       2       0       0       0       0       0
   643 ;;      Totals:         0       8       0       0       0       0       0
   644 ;;Total ram usage:        8 bytes
   645 ;; Hardware stack levels required when called: 5
   646 ;; This function calls:
   647 ;;		_PWM1_Duty
   648 ;;		_PWM1_Init
   649 ;;		_PWM1_Start
   650 ;;		_PortB_Int_Configuration
   651 ;;		_Timer1_Configuration
   652 ;;		_lcd_command
   653 ;;		_lcd_number
   654 ;;		_lcd_string
   655 ;; This function is called by:
   656 ;;		Startup code after reset
   657 ;; This function uses a non-reentrant model
   658 ;;
   659                           
   660                           	psect	text0
   661  002194                     __ptext0:
   662                           	callstack 0
   663  002194                     _main:
   664                           	callstack 26
   665  002194                     
   666                           ;newmain.c: 292:     unsigned int cnt_pre, cnt_af, rate;;newmain.c: 294:     TRISC = 0;
   667  002194  0E00               	movlw	0
   668  002196  6E94               	movwf	148,c	;volatile
   669                           
   670                           ;newmain.c: 295:     TRISD = 0;
   671  002198  0E00               	movlw	0
   672  00219A  6E95               	movwf	149,c	;volatile
   673                           
   674                           ;newmain.c: 296:     PORTC = 0;
   675  00219C  0E00               	movlw	0
   676  00219E  6E82               	movwf	130,c	;volatile
   677                           
   678                           ;newmain.c: 297:     PORTD = 0;
   679  0021A0  0E00               	movlw	0
   680  0021A2  6E83               	movwf	131,c	;volatile
   681  0021A4                     
   682                           ;newmain.c: 298:     lcd_command(0x38);
   683  0021A4  0E38               	movlw	56
   684  0021A6  EC3D  F012         	call	_lcd_command
   685  0021AA                     
   686                           ;newmain.c: 299:  lcd_command(0x0c);
   687  0021AA  0E0C               	movlw	12
   688  0021AC  EC3D  F012         	call	_lcd_command
   689  0021B0                     
   690                           ;newmain.c: 300:  lcd_command(0x01);
   691  0021B0  0E01               	movlw	1
   692  0021B2  EC3D  F012         	call	_lcd_command
   693  0021B6                     
   694                           ;newmain.c: 305:     lcd_number(x);
   695  0021B6  0E00               	movlw	0
   696  0021B8  0100               	movlb	0	; () banked
   697  0021BA  6F89               	movwf	(lcd_number@num+1)& (0+255),b
   698  0021BC  0E22               	movlw	34
   699  0021BE  6F88               	movwf	lcd_number@num& (0+255),b
   700  0021C0  EC49  F010         	call	_lcd_number	;wreg free
   701  0021C4                     
   702                           ;newmain.c: 306:  lcd_string(" chuc 23 mung");
   703  0021C4  0E01               	movlw	low STR_1
   704  0021C6  0100               	movlb	0	; () banked
   705  0021C8  6F84               	movwf	lcd_string@str& (0+255),b
   706  0021CA  0E06               	movlw	high STR_1
   707  0021CC  6F85               	movwf	(lcd_string@str+1)& (0+255),b
   708  0021CE  ECD9  F011         	call	_lcd_string	;wreg free
   709  0021D2                     
   710                           ;newmain.c: 309:     Timer1_Configuration();
   711  0021D2  EC7B  F012         	call	_Timer1_Configuration	;wreg free
   712  0021D6                     
   713                           ;newmain.c: 312:     PWM1_Init(5000);
   714  0021D6  0E88               	movlw	136
   715  0021D8  0100               	movlb	0	; () banked
   716  0021DA  6F8E               	movwf	PWM1_Init@u32Frequency& (0+255),b
   717  0021DC  0E13               	movlw	19
   718  0021DE  6F8F               	movwf	(PWM1_Init@u32Frequency+1)& (0+255),b
   719  0021E0  0E00               	movlw	0
   720  0021E2  6F90               	movwf	(PWM1_Init@u32Frequency+2)& (0+255),b
   721  0021E4  0E00               	movlw	0
   722  0021E6  6F91               	movwf	(PWM1_Init@u32Frequency+3)& (0+255),b
   723  0021E8  ECA0  F011         	call	_PWM1_Init	;wreg free
   724  0021EC                     
   725                           ;newmain.c: 313:     PWM1_Duty(0);
   726  0021EC  0E00               	movlw	0
   727  0021EE  0100               	movlb	0	; () banked
   728  0021F0  6FD9               	movwf	(PWM1_Duty@duty+1)& (0+255),b
   729  0021F2  0E00               	movlw	0
   730  0021F4  6FD8               	movwf	PWM1_Duty@duty& (0+255),b
   731  0021F6  EC1F  F00D         	call	_PWM1_Duty	;wreg free
   732  0021FA                     
   733                           ;newmain.c: 314:     PWM1_Start();
   734  0021FA  EC82  F012         	call	_PWM1_Start	;wreg free
   735  0021FE                     
   736                           ;newmain.c: 315:     TRISCbits.TRISC3 = 0;
   737  0021FE  9694               	bcf	148,3,c	;volatile
   738  002200                     
   739                           ;newmain.c: 316:     TRISCbits.TRISC4 = 0;
   740  002200  9894               	bcf	148,4,c	;volatile
   741  002202                     
   742                           ;newmain.c: 317:     PORTCbits.RC3 = 0;
   743  002202  9682               	bcf	130,3,c	;volatile
   744  002204                     
   745                           ;newmain.c: 318:     PORTCbits.RC4 = 1;
   746  002204  8882               	bsf	130,4,c	;volatile
   747  002206                     
   748                           ;newmain.c: 322:     PortB_Int_Configuration();
   749  002206  EC89  F012         	call	_PortB_Int_Configuration	;wreg free
   750  00220A                     l2925:
   751                           
   752                           ;newmain.c: 325:     {;newmain.c: 326:         cnt_pre = ((TMR1H << 8) | TMR1L);
   753  00220A  50CE               	movf	206,w,c	;volatile
   754  00220C  CFCF F0DE          	movff	4047,??_main	;volatile
   755  002210  0100               	movlb	0	; () banked
   756  002212  6BDF               	clrf	(??_main+1)& (0+255),b
   757  002214  C0DE  F0DF         	movff	??_main,??_main+1
   758  002218  6BDE               	clrf	??_main& (0+255),b
   759  00221A  11DE               	iorwf	??_main& (0+255),w,b
   760  00221C  6FE0               	movwf	main@cnt_pre& (0+255),b
   761  00221E  51DF               	movf	(??_main+1)& (0+255),w,b
   762  002220  6FE1               	movwf	(main@cnt_pre+1)& (0+255),b
   763  002222                     
   764                           ; BSR set to: 0
   765                           ;newmain.c: 327:         _delay((unsigned long)((1000)*(20000000/4000.0)));
   766  002222  0E1A               	movlw	26
   767  002224  0100               	movlb	0	; () banked
   768  002226  6FDF               	movwf	(??_main+1)& (0+255),b
   769  002228  0E5E               	movlw	94
   770  00222A  6FDE               	movwf	??_main& (0+255),b
   771  00222C  0E6E               	movlw	110
   772  00222E                     u3217:
   773  00222E  2EE8               	decfsz	wreg,f,c
   774  002230  D7FE               	bra	u3217
   775  002232  2FDE               	decfsz	??_main& (0+255),f,b
   776  002234  D7FC               	bra	u3217
   777  002236  2FDF               	decfsz	(??_main+1)& (0+255),f,b
   778  002238  D7FA               	bra	u3217
   779  00223A  F000               	nop	
   780  00223C                     
   781                           ;newmain.c: 328:         cnt_af = ((TMR1H << 8) | TMR1L);
   782  00223C  50CE               	movf	206,w,c	;volatile
   783  00223E  CFCF F0DE          	movff	4047,??_main	;volatile
   784  002242  0100               	movlb	0	; () banked
   785  002244  6BDF               	clrf	(??_main+1)& (0+255),b
   786  002246  C0DE  F0DF         	movff	??_main,??_main+1
   787  00224A  6BDE               	clrf	??_main& (0+255),b
   788  00224C  11DE               	iorwf	??_main& (0+255),w,b
   789  00224E  6FE2               	movwf	main@cnt_af& (0+255),b
   790  002250  51DF               	movf	(??_main+1)& (0+255),w,b
   791  002252  6FE3               	movwf	(main@cnt_af+1)& (0+255),b
   792  002254                     
   793                           ; BSR set to: 0
   794                           ;newmain.c: 329:         rate = cnt_af - cnt_pre;
   795  002254  51E0               	movf	main@cnt_pre& (0+255),w,b
   796  002256  5DE2               	subwf	main@cnt_af& (0+255),w,b
   797  002258  6FE4               	movwf	main@rate& (0+255),b
   798  00225A  51E1               	movf	(main@cnt_pre+1)& (0+255),w,b
   799  00225C  59E3               	subwfb	(main@cnt_af+1)& (0+255),w,b
   800  00225E  6FE5               	movwf	(main@rate+1)& (0+255),b
   801  002260                     
   802                           ; BSR set to: 0
   803                           ;newmain.c: 330:         lcd_command(0xc0);
   804  002260  0EC0               	movlw	192
   805  002262  EC3D  F012         	call	_lcd_command
   806  002266                     
   807                           ;newmain.c: 331:         lcd_number(rate);
   808  002266  C0E4  F088         	movff	main@rate,lcd_number@num
   809  00226A  C0E5  F089         	movff	main@rate+1,lcd_number@num+1
   810  00226E  EC49  F010         	call	_lcd_number	;wreg free
   811  002272  EF05  F011         	goto	l2925
   812  002276  EF07  F000         	goto	start
   813  00227A                     __end_of_main:
   814                           	callstack 0
   815                           
   816 ;; *************** function _lcd_string *****************
   817 ;; Defined at:
   818 ;;		line 32 in file "MyLcd16.c"
   819 ;; Parameters:    Size  Location     Type
   820 ;;  str             2    4[BANK0 ] PTR unsigned char 
   821 ;;		 -> STR_1(14), 
   822 ;; Auto vars:     Size  Location     Type
   823 ;;  i               2    8[BANK0 ] int 
   824 ;; Return value:  Size  Location     Type
   825 ;;                  1    wreg      void 
   826 ;; Registers used:
   827 ;;		wreg, status,2, status,0, tblptrl, tblptrh, tblptru, cstack
   828 ;; Tracked objects:
   829 ;;		On entry : 0/0
   830 ;;		On exit  : 0/0
   831 ;;		Unchanged: 0/0
   832 ;; Data sizes:     COMRAM   BANK0   BANK1   BANK2   BANK3   BANK4   BANK5
   833 ;;      Params:         0       2       0       0       0       0       0
   834 ;;      Locals:         0       2       0       0       0       0       0
   835 ;;      Temps:          0       2       0       0       0       0       0
   836 ;;      Totals:         0       6       0       0       0       0       0
   837 ;;Total ram usage:        6 bytes
   838 ;; Hardware stack levels used: 1
   839 ;; Hardware stack levels required when called: 4
   840 ;; This function calls:
   841 ;;		_lcd_char
   842 ;;		_strlen
   843 ;; This function is called by:
   844 ;;		_main
   845 ;; This function uses a non-reentrant model
   846 ;;
   847                           
   848                           	psect	text1
   849  0023B2                     __ptext1:
   850                           	callstack 0
   851  0023B2                     _lcd_string:
   852                           	callstack 26
   853  0023B2                     
   854                           ;MyLcd16.c: 32: void lcd_string(char *str);MyLcd16.c: 33: {;MyLcd16.c: 34:  for(int i=0;
      +                           i<strlen(str); i++)
   855  0023B2  0E00               	movlw	0
   856  0023B4  0100               	movlb	0	; () banked
   857  0023B6  6F89               	movwf	(lcd_string@i+1)& (0+255),b
   858  0023B8  0E00               	movlw	0
   859  0023BA  6F88               	movwf	lcd_string@i& (0+255),b
   860  0023BC  EFF1  F011         	goto	l2837
   861  0023C0                     l2833:
   862                           
   863                           ; BSR set to: 0
   864                           ;MyLcd16.c: 35:  {;MyLcd16.c: 36:   lcd_char(str[i]);
   865  0023C0  5188               	movf	lcd_string@i& (0+255),w,b
   866  0023C2  2584               	addwf	lcd_string@str& (0+255),w,b
   867  0023C4  6F86               	movwf	??_lcd_string& (0+255),b
   868  0023C6  5189               	movf	(lcd_string@i+1)& (0+255),w,b
   869  0023C8  2185               	addwfc	(lcd_string@str+1)& (0+255),w,b
   870  0023CA  6F87               	movwf	(??_lcd_string+1)& (0+255),b
   871  0023CC  C086  FFF6         	movff	??_lcd_string,tblptrl
   872  0023D0  C087  FFF7         	movff	??_lcd_string+1,tblptrh
   873  0023D4                     	if	0	;tblptru may be non-zero
   874  0023D4                     	endif
   875  0023D4                     	if	0	;tblptru may be non-zero
   876  0023D4                     	endif
   877  0023D4  0008               	tblrd		*
   878  0023D6  50F5               	movf	tablat,w,c
   879  0023D8  EC23  F012         	call	_lcd_char
   880  0023DC                     
   881                           ;MyLcd16.c: 37:  }
   882  0023DC  0100               	movlb	0	; () banked
   883  0023DE  4B88               	infsnz	lcd_string@i& (0+255),f,b
   884  0023E0  2B89               	incf	(lcd_string@i+1)& (0+255),f,b
   885  0023E2                     l2837:
   886                           
   887                           ; BSR set to: 0
   888  0023E2  C084  F080         	movff	lcd_string@str,strlen@s
   889  0023E6  C085  F081         	movff	lcd_string@str+1,strlen@s+1
   890  0023EA  EC04  F012         	call	_strlen	;wreg free
   891  0023EE  0100               	movlb	0	; () banked
   892  0023F0  5180               	movf	?_strlen& (0+255),w,b
   893  0023F2  5D88               	subwf	lcd_string@i& (0+255),w,b
   894  0023F4  5181               	movf	(?_strlen+1)& (0+255),w,b
   895  0023F6  5989               	subwfb	(lcd_string@i+1)& (0+255),w,b
   896  0023F8  A0D8               	btfss	status,0,c
   897  0023FA  EF01  F012         	goto	u3071
   898  0023FE  EF03  F012         	goto	u3070
   899  002402                     u3071:
   900  002402  EFE0  F011         	goto	l2833
   901  002406                     u3070:
   902  002406                     
   903                           ; BSR set to: 0
   904  002406  0012               	return		;funcret
   905  002408                     __end_of_lcd_string:
   906                           	callstack 0
   907                           
   908 ;; *************** function _strlen *****************
   909 ;; Defined at:
   910 ;;		line 5 in file "C:\Program Files\Microchip\xc8\v2.32\pic\sources\c99\common\strlen.c"
   911 ;; Parameters:    Size  Location     Type
   912 ;;  s               2    0[BANK0 ] PTR const unsigned char 
   913 ;;		 -> STR_1(14), 
   914 ;; Auto vars:     Size  Location     Type
   915 ;;  a               2    2[BANK0 ] PTR const unsigned char 
   916 ;;		 -> STR_1(14), 
   917 ;; Return value:  Size  Location     Type
   918 ;;                  2    0[BANK0 ] unsigned int 
   919 ;; Registers used:
   920 ;;		wreg, status,2, status,0, tblptrl, tblptrh, tblptru
   921 ;; Tracked objects:
   922 ;;		On entry : 0/0
   923 ;;		On exit  : 0/0
   924 ;;		Unchanged: 0/0
   925 ;; Data sizes:     COMRAM   BANK0   BANK1   BANK2   BANK3   BANK4   BANK5
   926 ;;      Params:         0       2       0       0       0       0       0
   927 ;;      Locals:         0       2       0       0       0       0       0
   928 ;;      Temps:          0       0       0       0       0       0       0
   929 ;;      Totals:         0       4       0       0       0       0       0
   930 ;;Total ram usage:        4 bytes
   931 ;; Hardware stack levels used: 1
   932 ;; Hardware stack levels required when called: 3
   933 ;; This function calls:
   934 ;;		Nothing
   935 ;; This function is called by:
   936 ;;		_lcd_string
   937 ;; This function uses a non-reentrant model
   938 ;;
   939                           
   940                           	psect	text2
   941  002408                     __ptext2:
   942                           	callstack 0
   943  002408                     _strlen:
   944                           	callstack 26
   945  002408  C080  F082         	movff	strlen@s,strlen@a
   946  00240C  C081  F083         	movff	strlen@s+1,strlen@a+1
   947  002410  EF0D  F012         	goto	l1907
   948  002414                     l1905:
   949  002414  0100               	movlb	0	; () banked
   950  002416  4B80               	infsnz	strlen@s& (0+255),f,b
   951  002418  2B81               	incf	(strlen@s+1)& (0+255),f,b
   952  00241A                     l1907:
   953  00241A  C080  FFF6         	movff	strlen@s,tblptrl
   954  00241E  C081  FFF7         	movff	strlen@s+1,tblptrh
   955  002422                     	if	0	;tblptru may be non-zero
   956  002422                     	endif
   957  002422                     	if	0	;tblptru may be non-zero
   958  002422                     	endif
   959  002422  0008               	tblrd		*
   960  002424  50F5               	movf	tablat,w,c
   961  002426  0900               	iorlw	0
   962  002428  A4D8               	btfss	status,2,c
   963  00242A  EF19  F012         	goto	u1611
   964  00242E  EF1B  F012         	goto	u1610
   965  002432                     u1611:
   966  002432  EF0A  F012         	goto	l1905
   967  002436                     u1610:
   968  002436  0100               	movlb	0	; () banked
   969  002438  5182               	movf	strlen@a& (0+255),w,b
   970  00243A  5D80               	subwf	strlen@s& (0+255),w,b
   971  00243C  6F80               	movwf	?_strlen& (0+255),b
   972  00243E  5183               	movf	(strlen@a+1)& (0+255),w,b
   973  002440  5981               	subwfb	(strlen@s+1)& (0+255),w,b
   974  002442  6F81               	movwf	(?_strlen+1)& (0+255),b
   975  002444                     
   976                           ; BSR set to: 0
   977  002444  0012               	return		;funcret
   978  002446                     __end_of_strlen:
   979                           	callstack 0
   980                           
   981 ;; *************** function _lcd_number *****************
   982 ;; Defined at:
   983 ;;		line 40 in file "MyLcd16.c"
   984 ;; Parameters:    Size  Location     Type
   985 ;;  num             2    8[BANK0 ] int 
   986 ;; Auto vars:     Size  Location     Type
   987 ;;  num_div         2   14[BANK0 ] int 
   988 ;;  num_test        2   12[BANK0 ] int 
   989 ;;  num_display     2   10[BANK0 ] int 
   990 ;; Return value:  Size  Location     Type
   991 ;;                  1    wreg      void 
   992 ;; Registers used:
   993 ;;		wreg, status,2, status,0, prodl, prodh, cstack
   994 ;; Tracked objects:
   995 ;;		On entry : 0/0
   996 ;;		On exit  : 0/0
   997 ;;		Unchanged: 0/0
   998 ;; Data sizes:     COMRAM   BANK0   BANK1   BANK2   BANK3   BANK4   BANK5
   999 ;;      Params:         0       2       0       0       0       0       0
  1000 ;;      Locals:         0       6       0       0       0       0       0
  1001 ;;      Temps:          0       0       0       0       0       0       0
  1002 ;;      Totals:         0       8       0       0       0       0       0
  1003 ;;Total ram usage:        8 bytes
  1004 ;; Hardware stack levels used: 1
  1005 ;; Hardware stack levels required when called: 4
  1006 ;; This function calls:
  1007 ;;		___awdiv
  1008 ;;		___wmul
  1009 ;;		_lcd_char
  1010 ;; This function is called by:
  1011 ;;		_main
  1012 ;; This function uses a non-reentrant model
  1013 ;;
  1014                           
  1015                           	psect	text3
  1016  002092                     __ptext3:
  1017                           	callstack 0
  1018  002092                     _lcd_number:
  1019                           	callstack 26
  1020  002092                     
  1021                           ;MyLcd16.c: 40: void lcd_number(int num);MyLcd16.c: 41: {;MyLcd16.c: 42:     int num_div
      +                           = 10000;
  1022  002092  0E27               	movlw	39
  1023  002094  0100               	movlb	0	; () banked
  1024  002096  6F8F               	movwf	(lcd_number@num_div+1)& (0+255),b
  1025  002098  0E10               	movlw	16
  1026  00209A  6F8E               	movwf	lcd_number@num_div& (0+255),b
  1027  00209C                     
  1028                           ; BSR set to: 0
  1029                           ;MyLcd16.c: 43:     int num_test = num;
  1030  00209C  C088  F08C         	movff	lcd_number@num,lcd_number@num_test
  1031  0020A0  C089  F08D         	movff	lcd_number@num+1,lcd_number@num_test+1
  1032  0020A4                     
  1033                           ; BSR set to: 0
  1034                           ;MyLcd16.c: 45:     if (num != 0) while (num_test/num_div <= 0 )
  1035  0020A4  5188               	movf	lcd_number@num& (0+255),w,b
  1036  0020A6  1189               	iorwf	(lcd_number@num+1)& (0+255),w,b
  1037  0020A8  B4D8               	btfsc	status,2,c
  1038  0020AA  EF59  F010         	goto	u3041
  1039  0020AE  EF5B  F010         	goto	u3040
  1040  0020B2                     u3041:
  1041  0020B2  EF85  F010         	goto	l2819
  1042  0020B6                     u3040:
  1043  0020B6  EF6B  F010         	goto	l139
  1044  0020BA                     l2817:
  1045                           
  1046                           ; BSR set to: 0
  1047                           ;MyLcd16.c: 46:     {;MyLcd16.c: 47:         num_div /= 10;
  1048  0020BA  C08E  F080         	movff	lcd_number@num_div,___awdiv@dividend
  1049  0020BE  C08F  F081         	movff	lcd_number@num_div+1,___awdiv@dividend+1
  1050  0020C2  0E00               	movlw	0
  1051  0020C4  6F83               	movwf	(___awdiv@divisor+1)& (0+255),b
  1052  0020C6  0E0A               	movlw	10
  1053  0020C8  6F82               	movwf	___awdiv@divisor& (0+255),b
  1054  0020CA  EC3D  F011         	call	___awdiv	;wreg free
  1055  0020CE  C080  F08E         	movff	?___awdiv,lcd_number@num_div
  1056  0020D2  C081  F08F         	movff	?___awdiv+1,lcd_number@num_div+1
  1057  0020D6                     l139:
  1058                           
  1059                           ;MyLcd16.c: 45:     if (num != 0) while (num_test/num_div <= 0 )
  1060  0020D6  C08C  F080         	movff	lcd_number@num_test,___awdiv@dividend
  1061  0020DA  C08D  F081         	movff	lcd_number@num_test+1,___awdiv@dividend+1
  1062  0020DE  C08E  F082         	movff	lcd_number@num_div,___awdiv@divisor
  1063  0020E2  C08F  F083         	movff	lcd_number@num_div+1,___awdiv@divisor+1
  1064  0020E6  EC3D  F011         	call	___awdiv	;wreg free
  1065  0020EA  0100               	movlb	0	; () banked
  1066  0020EC  BF81               	btfsc	(?___awdiv+1)& (0+255),7,b
  1067  0020EE  EF81  F010         	goto	u3051
  1068  0020F2  5181               	movf	(?___awdiv+1)& (0+255),w,b
  1069  0020F4  E108               	bnz	u3050
  1070  0020F6  0580               	decf	?___awdiv& (0+255),w,b
  1071  0020F8  A0D8               	btfss	status,0,c
  1072  0020FA  EF81  F010         	goto	u3051
  1073  0020FE  EF83  F010         	goto	u3050
  1074  002102                     u3051:
  1075  002102  EF5D  F010         	goto	l2817
  1076  002106                     u3050:
  1077  002106  EF89  F010         	goto	l2821
  1078  00210A                     l2819:
  1079                           
  1080                           ; BSR set to: 0
  1081  00210A  0E00               	movlw	0
  1082  00210C  6F8F               	movwf	(lcd_number@num_div+1)& (0+255),b
  1083  00210E  0E01               	movlw	1
  1084  002110  6F8E               	movwf	lcd_number@num_div& (0+255),b
  1085  002112                     l2821:
  1086                           
  1087                           ; BSR set to: 0
  1088                           ;MyLcd16.c: 52:     {;MyLcd16.c: 53:         num_display = num_test/num_div;
  1089  002112  C08C  F080         	movff	lcd_number@num_test,___awdiv@dividend
  1090  002116  C08D  F081         	movff	lcd_number@num_test+1,___awdiv@dividend+1
  1091  00211A  C08E  F082         	movff	lcd_number@num_div,___awdiv@divisor
  1092  00211E  C08F  F083         	movff	lcd_number@num_div+1,___awdiv@divisor+1
  1093  002122  EC3D  F011         	call	___awdiv	;wreg free
  1094  002126  C080  F08A         	movff	?___awdiv,lcd_number@num_display
  1095  00212A  C081  F08B         	movff	?___awdiv+1,lcd_number@num_display+1
  1096  00212E                     
  1097                           ;MyLcd16.c: 54:         lcd_char(num_display + 48U);
  1098  00212E  0100               	movlb	0	; () banked
  1099  002130  518A               	movf	lcd_number@num_display& (0+255),w,b
  1100  002132  0F30               	addlw	48
  1101  002134  EC23  F012         	call	_lcd_char
  1102  002138                     
  1103                           ;MyLcd16.c: 55:         num_test = num_test - num_div*num_display;
  1104  002138  C08E  F080         	movff	lcd_number@num_div,___wmul@multiplier
  1105  00213C  C08F  F081         	movff	lcd_number@num_div+1,___wmul@multiplier+1
  1106  002140  C08A  F082         	movff	lcd_number@num_display,___wmul@multiplicand
  1107  002144  C08B  F083         	movff	lcd_number@num_display+1,___wmul@multiplicand+1
  1108  002148  EC57  F012         	call	___wmul	;wreg free
  1109  00214C  0100               	movlb	0	; () banked
  1110  00214E  5180               	movf	?___wmul& (0+255),w,b
  1111  002150  5D8C               	subwf	lcd_number@num_test& (0+255),w,b
  1112  002152  6F8C               	movwf	lcd_number@num_test& (0+255),b
  1113  002154  5181               	movf	(?___wmul+1)& (0+255),w,b
  1114  002156  598D               	subwfb	(lcd_number@num_test+1)& (0+255),w,b
  1115  002158  6F8D               	movwf	(lcd_number@num_test+1)& (0+255),b
  1116  00215A                     
  1117                           ; BSR set to: 0
  1118                           ;MyLcd16.c: 56:         num_div /= 10;
  1119  00215A  C08E  F080         	movff	lcd_number@num_div,___awdiv@dividend
  1120  00215E  C08F  F081         	movff	lcd_number@num_div+1,___awdiv@dividend+1
  1121  002162  0E00               	movlw	0
  1122  002164  6F83               	movwf	(___awdiv@divisor+1)& (0+255),b
  1123  002166  0E0A               	movlw	10
  1124  002168  6F82               	movwf	___awdiv@divisor& (0+255),b
  1125  00216A  EC3D  F011         	call	___awdiv	;wreg free
  1126  00216E  C080  F08E         	movff	?___awdiv,lcd_number@num_div
  1127  002172  C081  F08F         	movff	?___awdiv+1,lcd_number@num_div+1
  1128  002176                     
  1129                           ;MyLcd16.c: 57:     }
  1130  002176  0100               	movlb	0	; () banked
  1131  002178  BF8F               	btfsc	(lcd_number@num_div+1)& (0+255),7,b
  1132  00217A  EFC9  F010         	goto	u3060
  1133  00217E  518F               	movf	(lcd_number@num_div+1)& (0+255),w,b
  1134  002180  E106               	bnz	u3061
  1135  002182  058E               	decf	lcd_number@num_div& (0+255),w,b
  1136  002184  B0D8               	btfsc	status,0,c
  1137  002186  EFC7  F010         	goto	u3061
  1138  00218A  EFC9  F010         	goto	u3060
  1139  00218E                     u3061:
  1140  00218E  EF89  F010         	goto	l2821
  1141  002192                     u3060:
  1142  002192                     
  1143                           ; BSR set to: 0
  1144  002192  0012               	return		;funcret
  1145  002194                     __end_of_lcd_number:
  1146                           	callstack 0
  1147                           
  1148 ;; *************** function _lcd_char *****************
  1149 ;; Defined at:
  1150 ;;		line 20 in file "MyLcd16.c"
  1151 ;; Parameters:    Size  Location     Type
  1152 ;;  data            1    wreg     unsigned char 
  1153 ;; Auto vars:     Size  Location     Type
  1154 ;;  data            1    1[BANK0 ] unsigned char 
  1155 ;; Return value:  Size  Location     Type
  1156 ;;                  1    wreg      void 
  1157 ;; Registers used:
  1158 ;;		wreg, status,2, status,0
  1159 ;; Tracked objects:
  1160 ;;		On entry : 0/0
  1161 ;;		On exit  : 0/0
  1162 ;;		Unchanged: 0/0
  1163 ;; Data sizes:     COMRAM   BANK0   BANK1   BANK2   BANK3   BANK4   BANK5
  1164 ;;      Params:         0       0       0       0       0       0       0
  1165 ;;      Locals:         0       1       0       0       0       0       0
  1166 ;;      Temps:          0       1       0       0       0       0       0
  1167 ;;      Totals:         0       2       0       0       0       0       0
  1168 ;;Total ram usage:        2 bytes
  1169 ;; Hardware stack levels used: 1
  1170 ;; Hardware stack levels required when called: 3
  1171 ;; This function calls:
  1172 ;;		Nothing
  1173 ;; This function is called by:
  1174 ;;		_lcd_string
  1175 ;;		_lcd_number
  1176 ;; This function uses a non-reentrant model
  1177 ;;
  1178                           
  1179                           	psect	text4
  1180  002446                     __ptext4:
  1181                           	callstack 0
  1182  002446                     _lcd_char:
  1183                           	callstack 26
  1184                           
  1185                           ; BSR set to: 0
  1186                           ;incstack = 0
  1187                           ;lcd_char@data stored from wreg
  1188  002446  0100               	movlb	0	; () banked
  1189  002448  6F81               	movwf	lcd_char@data& (0+255),b
  1190  00244A                     
  1191                           ;MyLcd16.c: 20: void lcd_char(char data);MyLcd16.c: 21: {;MyLcd16.c: 22:     PORTC &= ~(
      +                          1<<6);
  1192  00244A  9C82               	bcf	130,6,c	;volatile
  1193                           
  1194                           ;MyLcd16.c: 23:  PORTC |= (1<<5);
  1195  00244C  8A82               	bsf	130,5,c	;volatile
  1196  00244E                     
  1197                           ;MyLcd16.c: 24:  PORTD = data;
  1198  00244E  C081  FF83         	movff	lcd_char@data,3971	;volatile
  1199  002452                     
  1200                           ;MyLcd16.c: 27:  PORTC |= (1<<7);
  1201  002452  8E82               	bsf	130,7,c	;volatile
  1202  002454                     
  1203                           ;MyLcd16.c: 28:  _delay((unsigned long)((1)*(20000000/4000.0)));
  1204  002454  0E07               	movlw	7
  1205  002456  0100               	movlb	0	; () banked
  1206  002458  6F80               	movwf	??_lcd_char& (0+255),b
  1207  00245A  0E7D               	movlw	125
  1208  00245C                     u3227:
  1209  00245C  2EE8               	decfsz	wreg,f,c
  1210  00245E  D7FE               	bra	u3227
  1211  002460  2F80               	decfsz	??_lcd_char& (0+255),f,b
  1212  002462  D7FC               	bra	u3227
  1213  002464                     
  1214                           ;MyLcd16.c: 29:     PORTC &= ~(1<<7);
  1215  002464  9E82               	bcf	130,7,c	;volatile
  1216  002466                     
  1217                           ;MyLcd16.c: 30:  _delay((unsigned long)((3)*(20000000/4000.0)));
  1218  002466  0E14               	movlw	20
  1219  002468  0100               	movlb	0	; () banked
  1220  00246A  6F80               	movwf	??_lcd_char& (0+255),b
  1221  00246C  0E79               	movlw	121
  1222  00246E                     u3237:
  1223  00246E  2EE8               	decfsz	wreg,f,c
  1224  002470  D7FE               	bra	u3237
  1225  002472  2F80               	decfsz	??_lcd_char& (0+255),f,b
  1226  002474  D7FC               	bra	u3237
  1227  002476  D000               	nop2	
  1228  002478  0012               	return		;funcret
  1229  00247A                     __end_of_lcd_char:
  1230                           	callstack 0
  1231                           
  1232 ;; *************** function ___wmul *****************
  1233 ;; Defined at:
  1234 ;;		line 15 in file "C:\Program Files\Microchip\xc8\v2.32\pic\sources\c99\common\Umul16.c"
  1235 ;; Parameters:    Size  Location     Type
  1236 ;;  multiplier      2    0[BANK0 ] unsigned int 
  1237 ;;  multiplicand    2    2[BANK0 ] unsigned int 
  1238 ;; Auto vars:     Size  Location     Type
  1239 ;;  product         2    4[BANK0 ] unsigned int 
  1240 ;; Return value:  Size  Location     Type
  1241 ;;                  2    0[BANK0 ] unsigned int 
  1242 ;; Registers used:
  1243 ;;		wreg, status,2, status,0, prodl, prodh
  1244 ;; Tracked objects:
  1245 ;;		On entry : 0/0
  1246 ;;		On exit  : 0/0
  1247 ;;		Unchanged: 0/0
  1248 ;; Data sizes:     COMRAM   BANK0   BANK1   BANK2   BANK3   BANK4   BANK5
  1249 ;;      Params:         0       4       0       0       0       0       0
  1250 ;;      Locals:         0       2       0       0       0       0       0
  1251 ;;      Temps:          0       0       0       0       0       0       0
  1252 ;;      Totals:         0       6       0       0       0       0       0
  1253 ;;Total ram usage:        6 bytes
  1254 ;; Hardware stack levels used: 1
  1255 ;; Hardware stack levels required when called: 3
  1256 ;; This function calls:
  1257 ;;		Nothing
  1258 ;; This function is called by:
  1259 ;;		_lcd_number
  1260 ;; This function uses a non-reentrant model
  1261 ;;
  1262                           
  1263                           	psect	text5
  1264  0024AE                     __ptext5:
  1265                           	callstack 0
  1266  0024AE                     ___wmul:
  1267                           	callstack 26
  1268  0024AE  0100               	movlb	0	; () banked
  1269  0024B0  5180               	movf	___wmul@multiplier& (0+255),w,b
  1270  0024B2  0382               	mulwf	___wmul@multiplicand& (0+255),b
  1271  0024B4  CFF3 F084          	movff	prodl,___wmul@product
  1272  0024B8  CFF4 F085          	movff	prodh,___wmul@product+1
  1273  0024BC  5180               	movf	___wmul@multiplier& (0+255),w,b
  1274  0024BE  0383               	mulwf	(___wmul@multiplicand+1)& (0+255),b
  1275  0024C0  50F3               	movf	243,w,c
  1276  0024C2  2785               	addwf	(___wmul@product+1)& (0+255),f,b
  1277  0024C4  5181               	movf	(___wmul@multiplier+1)& (0+255),w,b
  1278  0024C6  0382               	mulwf	___wmul@multiplicand& (0+255),b
  1279  0024C8  50F3               	movf	243,w,c
  1280  0024CA  2785               	addwf	(___wmul@product+1)& (0+255),f,b
  1281  0024CC                     
  1282                           ; BSR set to: 0
  1283  0024CC  C084  F080         	movff	___wmul@product,?___wmul
  1284  0024D0  C085  F081         	movff	___wmul@product+1,?___wmul+1
  1285  0024D4                     
  1286                           ; BSR set to: 0
  1287  0024D4  0012               	return		;funcret
  1288  0024D6                     __end_of___wmul:
  1289                           	callstack 0
  1290                           
  1291 ;; *************** function ___awdiv *****************
  1292 ;; Defined at:
  1293 ;;		line 7 in file "C:\Program Files\Microchip\xc8\v2.32\pic\sources\c99\common\awdiv.c"
  1294 ;; Parameters:    Size  Location     Type
  1295 ;;  dividend        2    0[BANK0 ] int 
  1296 ;;  divisor         2    2[BANK0 ] int 
  1297 ;; Auto vars:     Size  Location     Type
  1298 ;;  quotient        2    6[BANK0 ] int 
  1299 ;;  sign            1    5[BANK0 ] unsigned char 
  1300 ;;  counter         1    4[BANK0 ] unsigned char 
  1301 ;; Return value:  Size  Location     Type
  1302 ;;                  2    0[BANK0 ] int 
  1303 ;; Registers used:
  1304 ;;		wreg, status,2, status,0
  1305 ;; Tracked objects:
  1306 ;;		On entry : 0/0
  1307 ;;		On exit  : 0/0
  1308 ;;		Unchanged: 0/0
  1309 ;; Data sizes:     COMRAM   BANK0   BANK1   BANK2   BANK3   BANK4   BANK5
  1310 ;;      Params:         0       4       0       0       0       0       0
  1311 ;;      Locals:         0       4       0       0       0       0       0
  1312 ;;      Temps:          0       0       0       0       0       0       0
  1313 ;;      Totals:         0       8       0       0       0       0       0
  1314 ;;Total ram usage:        8 bytes
  1315 ;; Hardware stack levels used: 1
  1316 ;; Hardware stack levels required when called: 3
  1317 ;; This function calls:
  1318 ;;		Nothing
  1319 ;; This function is called by:
  1320 ;;		_lcd_number
  1321 ;; This function uses a non-reentrant model
  1322 ;;
  1323                           
  1324                           	psect	text6
  1325  00227A                     __ptext6:
  1326                           	callstack 0
  1327  00227A                     ___awdiv:
  1328                           	callstack 26
  1329  00227A  0E00               	movlw	0
  1330  00227C  0100               	movlb	0	; () banked
  1331  00227E  6F85               	movwf	___awdiv@sign& (0+255),b
  1332  002280                     
  1333                           ; BSR set to: 0
  1334  002280  BF83               	btfsc	(___awdiv@divisor+1)& (0+255),7,b
  1335  002282  EF47  F011         	goto	u2100
  1336  002286  EF45  F011         	goto	u2101
  1337  00228A                     u2101:
  1338  00228A  EF4D  F011         	goto	l2239
  1339  00228E                     u2100:
  1340  00228E                     
  1341                           ; BSR set to: 0
  1342  00228E  6D82               	negf	___awdiv@divisor& (0+255),b
  1343  002290  1F83               	comf	(___awdiv@divisor+1)& (0+255),f,b
  1344  002292  B0D8               	btfsc	status,0,c
  1345  002294  2B83               	incf	(___awdiv@divisor+1)& (0+255),f,b
  1346  002296                     
  1347                           ; BSR set to: 0
  1348  002296  0E01               	movlw	1
  1349  002298  6F85               	movwf	___awdiv@sign& (0+255),b
  1350  00229A                     l2239:
  1351                           
  1352                           ; BSR set to: 0
  1353  00229A  BF81               	btfsc	(___awdiv@dividend+1)& (0+255),7,b
  1354  00229C  EF54  F011         	goto	u2110
  1355  0022A0  EF52  F011         	goto	u2111
  1356  0022A4                     u2111:
  1357  0022A4  EF5A  F011         	goto	l2245
  1358  0022A8                     u2110:
  1359  0022A8                     
  1360                           ; BSR set to: 0
  1361  0022A8  6D80               	negf	___awdiv@dividend& (0+255),b
  1362  0022AA  1F81               	comf	(___awdiv@dividend+1)& (0+255),f,b
  1363  0022AC  B0D8               	btfsc	status,0,c
  1364  0022AE  2B81               	incf	(___awdiv@dividend+1)& (0+255),f,b
  1365  0022B0                     
  1366                           ; BSR set to: 0
  1367  0022B0  0E01               	movlw	1
  1368  0022B2  1B85               	xorwf	___awdiv@sign& (0+255),f,b
  1369  0022B4                     l2245:
  1370                           
  1371                           ; BSR set to: 0
  1372  0022B4  0E00               	movlw	0
  1373  0022B6  6F87               	movwf	(___awdiv@quotient+1)& (0+255),b
  1374  0022B8  0E00               	movlw	0
  1375  0022BA  6F86               	movwf	___awdiv@quotient& (0+255),b
  1376  0022BC                     
  1377                           ; BSR set to: 0
  1378  0022BC  5182               	movf	___awdiv@divisor& (0+255),w,b
  1379  0022BE  1183               	iorwf	(___awdiv@divisor+1)& (0+255),w,b
  1380  0022C0  B4D8               	btfsc	status,2,c
  1381  0022C2  EF65  F011         	goto	u2121
  1382  0022C6  EF67  F011         	goto	u2120
  1383  0022CA                     u2121:
  1384  0022CA  EF8F  F011         	goto	l2267
  1385  0022CE                     u2120:
  1386  0022CE                     
  1387                           ; BSR set to: 0
  1388  0022CE  0E01               	movlw	1
  1389  0022D0  6F84               	movwf	___awdiv@counter& (0+255),b
  1390  0022D2  EF6F  F011         	goto	l2253
  1391  0022D6                     l2251:
  1392                           
  1393                           ; BSR set to: 0
  1394  0022D6  90D8               	bcf	status,0,c
  1395  0022D8  3782               	rlcf	___awdiv@divisor& (0+255),f,b
  1396  0022DA  3783               	rlcf	(___awdiv@divisor+1)& (0+255),f,b
  1397  0022DC  2B84               	incf	___awdiv@counter& (0+255),f,b
  1398  0022DE                     l2253:
  1399                           
  1400                           ; BSR set to: 0
  1401  0022DE  AF83               	btfss	(___awdiv@divisor+1)& (0+255),7,b
  1402  0022E0  EF74  F011         	goto	u2131
  1403  0022E4  EF76  F011         	goto	u2130
  1404  0022E8                     u2131:
  1405  0022E8  EF6B  F011         	goto	l2251
  1406  0022EC                     u2130:
  1407  0022EC                     l2255:
  1408                           
  1409                           ; BSR set to: 0
  1410  0022EC  90D8               	bcf	status,0,c
  1411  0022EE  3786               	rlcf	___awdiv@quotient& (0+255),f,b
  1412  0022F0  3787               	rlcf	(___awdiv@quotient+1)& (0+255),f,b
  1413  0022F2                     
  1414                           ; BSR set to: 0
  1415  0022F2  5182               	movf	___awdiv@divisor& (0+255),w,b
  1416  0022F4  5D80               	subwf	___awdiv@dividend& (0+255),w,b
  1417  0022F6  5183               	movf	(___awdiv@divisor+1)& (0+255),w,b
  1418  0022F8  5981               	subwfb	(___awdiv@dividend+1)& (0+255),w,b
  1419  0022FA  A0D8               	btfss	status,0,c
  1420  0022FC  EF82  F011         	goto	u2141
  1421  002300  EF84  F011         	goto	u2140
  1422  002304                     u2141:
  1423  002304  EF89  F011         	goto	l2263
  1424  002308                     u2140:
  1425  002308                     
  1426                           ; BSR set to: 0
  1427  002308  5182               	movf	___awdiv@divisor& (0+255),w,b
  1428  00230A  5F80               	subwf	___awdiv@dividend& (0+255),f,b
  1429  00230C  5183               	movf	(___awdiv@divisor+1)& (0+255),w,b
  1430  00230E  5B81               	subwfb	(___awdiv@dividend+1)& (0+255),f,b
  1431  002310                     
  1432                           ; BSR set to: 0
  1433  002310  8186               	bsf	___awdiv@quotient& (0+255),0,b
  1434  002312                     l2263:
  1435                           
  1436                           ; BSR set to: 0
  1437  002312  90D8               	bcf	status,0,c
  1438  002314  3383               	rrcf	(___awdiv@divisor+1)& (0+255),f,b
  1439  002316  3382               	rrcf	___awdiv@divisor& (0+255),f,b
  1440  002318                     
  1441                           ; BSR set to: 0
  1442  002318  2F84               	decfsz	___awdiv@counter& (0+255),f,b
  1443  00231A  EF76  F011         	goto	l2255
  1444  00231E                     l2267:
  1445                           
  1446                           ; BSR set to: 0
  1447  00231E  5185               	movf	___awdiv@sign& (0+255),w,b
  1448  002320  B4D8               	btfsc	status,2,c
  1449  002322  EF95  F011         	goto	u2151
  1450  002326  EF97  F011         	goto	u2150
  1451  00232A                     u2151:
  1452  00232A  EF9B  F011         	goto	l2271
  1453  00232E                     u2150:
  1454  00232E                     
  1455                           ; BSR set to: 0
  1456  00232E  6D86               	negf	___awdiv@quotient& (0+255),b
  1457  002330  1F87               	comf	(___awdiv@quotient+1)& (0+255),f,b
  1458  002332  B0D8               	btfsc	status,0,c
  1459  002334  2B87               	incf	(___awdiv@quotient+1)& (0+255),f,b
  1460  002336                     l2271:
  1461                           
  1462                           ; BSR set to: 0
  1463  002336  C086  F080         	movff	___awdiv@quotient,?___awdiv
  1464  00233A  C087  F081         	movff	___awdiv@quotient+1,?___awdiv+1
  1465  00233E                     
  1466                           ; BSR set to: 0
  1467  00233E  0012               	return		;funcret
  1468  002340                     __end_of___awdiv:
  1469                           	callstack 0
  1470                           
  1471 ;; *************** function _lcd_command *****************
  1472 ;; Defined at:
  1473 ;;		line 6 in file "MyLcd16.c"
  1474 ;; Parameters:    Size  Location     Type
  1475 ;;  cmnd            1    wreg     unsigned char 
  1476 ;; Auto vars:     Size  Location     Type
  1477 ;;  cmnd            1    1[BANK0 ] unsigned char 
  1478 ;; Return value:  Size  Location     Type
  1479 ;;                  1    wreg      void 
  1480 ;; Registers used:
  1481 ;;		wreg, status,2, status,0
  1482 ;; Tracked objects:
  1483 ;;		On entry : 0/0
  1484 ;;		On exit  : 0/0
  1485 ;;		Unchanged: 0/0
  1486 ;; Data sizes:     COMRAM   BANK0   BANK1   BANK2   BANK3   BANK4   BANK5
  1487 ;;      Params:         0       0       0       0       0       0       0
  1488 ;;      Locals:         0       1       0       0       0       0       0
  1489 ;;      Temps:          0       1       0       0       0       0       0
  1490 ;;      Totals:         0       2       0       0       0       0       0
  1491 ;;Total ram usage:        2 bytes
  1492 ;; Hardware stack levels used: 1
  1493 ;; Hardware stack levels required when called: 3
  1494 ;; This function calls:
  1495 ;;		Nothing
  1496 ;; This function is called by:
  1497 ;;		_main
  1498 ;; This function uses a non-reentrant model
  1499 ;;
  1500                           
  1501                           	psect	text7
  1502  00247A                     __ptext7:
  1503                           	callstack 0
  1504  00247A                     _lcd_command:
  1505                           	callstack 27
  1506                           
  1507                           ; BSR set to: 0
  1508                           ;incstack = 0
  1509                           ;lcd_command@cmnd stored from wreg
  1510  00247A  0100               	movlb	0	; () banked
  1511  00247C  6F81               	movwf	lcd_command@cmnd& (0+255),b
  1512  00247E                     
  1513                           ;MyLcd16.c: 6: void lcd_command(char cmnd);MyLcd16.c: 7: {;MyLcd16.c: 8:  PORTC &= ~(1<<
      +                          6);
  1514  00247E  9C82               	bcf	130,6,c	;volatile
  1515                           
  1516                           ;MyLcd16.c: 9:  PORTC &= ~(1<<5);
  1517  002480  9A82               	bcf	130,5,c	;volatile
  1518  002482                     
  1519                           ;MyLcd16.c: 11:  PORTD = cmnd;
  1520  002482  C081  FF83         	movff	lcd_command@cmnd,3971	;volatile
  1521  002486                     
  1522                           ;MyLcd16.c: 14:  PORTC |= (1<<7);
  1523  002486  8E82               	bsf	130,7,c	;volatile
  1524  002488                     
  1525                           ;MyLcd16.c: 15:  _delay((unsigned long)((1)*(20000000/4000.0)));
  1526  002488  0E07               	movlw	7
  1527  00248A  0100               	movlb	0	; () banked
  1528  00248C  6F80               	movwf	??_lcd_command& (0+255),b
  1529  00248E  0E7D               	movlw	125
  1530  002490                     u3247:
  1531  002490  2EE8               	decfsz	wreg,f,c
  1532  002492  D7FE               	bra	u3247
  1533  002494  2F80               	decfsz	??_lcd_command& (0+255),f,b
  1534  002496  D7FC               	bra	u3247
  1535  002498                     
  1536                           ;MyLcd16.c: 16:     PORTC &= ~(1<<7);
  1537  002498  9E82               	bcf	130,7,c	;volatile
  1538  00249A                     
  1539                           ;MyLcd16.c: 17:  _delay((unsigned long)((3)*(20000000/4000.0)));
  1540  00249A  0E14               	movlw	20
  1541  00249C  0100               	movlb	0	; () banked
  1542  00249E  6F80               	movwf	??_lcd_command& (0+255),b
  1543  0024A0  0E79               	movlw	121
  1544  0024A2                     u3257:
  1545  0024A2  2EE8               	decfsz	wreg,f,c
  1546  0024A4  D7FE               	bra	u3257
  1547  0024A6  2F80               	decfsz	??_lcd_command& (0+255),f,b
  1548  0024A8  D7FC               	bra	u3257
  1549  0024AA  D000               	nop2	
  1550  0024AC  0012               	return		;funcret
  1551  0024AE                     __end_of_lcd_command:
  1552                           	callstack 0
  1553                           
  1554 ;; *************** function _Timer1_Configuration *****************
  1555 ;; Defined at:
  1556 ;;		line 79 in file "newmain.c"
  1557 ;; Parameters:    Size  Location     Type
  1558 ;;		None
  1559 ;; Auto vars:     Size  Location     Type
  1560 ;;		None
  1561 ;; Return value:  Size  Location     Type
  1562 ;;                  2   70[None  ] int 
  1563 ;; Registers used:
  1564 ;;		wreg, status,2
  1565 ;; Tracked objects:
  1566 ;;		On entry : 0/0
  1567 ;;		On exit  : 0/0
  1568 ;;		Unchanged: 0/0
  1569 ;; Data sizes:     COMRAM   BANK0   BANK1   BANK2   BANK3   BANK4   BANK5
  1570 ;;      Params:         0       0       0       0       0       0       0
  1571 ;;      Locals:         0       0       0       0       0       0       0
  1572 ;;      Temps:          0       0       0       0       0       0       0
  1573 ;;      Totals:         0       0       0       0       0       0       0
  1574 ;;Total ram usage:        0 bytes
  1575 ;; Hardware stack levels used: 1
  1576 ;; Hardware stack levels required when called: 3
  1577 ;; This function calls:
  1578 ;;		Nothing
  1579 ;; This function is called by:
  1580 ;;		_main
  1581 ;; This function uses a non-reentrant model
  1582 ;;
  1583                           
  1584                           	psect	text8
  1585  0024F6                     __ptext8:
  1586                           	callstack 0
  1587  0024F6                     _Timer1_Configuration:
  1588                           	callstack 27
  1589  0024F6                     
  1590                           ;newmain.c: 81:     T1CON = 0x03;
  1591  0024F6  0E03               	movlw	3
  1592  0024F8  6ECD               	movwf	205,c	;volatile
  1593                           
  1594                           ;newmain.c: 82:     TMR1L = 0;
  1595  0024FA  0E00               	movlw	0
  1596  0024FC  6ECE               	movwf	206,c	;volatile
  1597                           
  1598                           ;newmain.c: 83:     TMR1H = 0;
  1599  0024FE  0E00               	movlw	0
  1600  002500  6ECF               	movwf	207,c	;volatile
  1601  002502  0012               	return		;funcret
  1602  002504                     __end_of_Timer1_Configuration:
  1603                           	callstack 0
  1604                           
  1605 ;; *************** function _PortB_Int_Configuration *****************
  1606 ;; Defined at:
  1607 ;;		line 145 in file "newmain.c"
  1608 ;; Parameters:    Size  Location     Type
  1609 ;;		None
  1610 ;; Auto vars:     Size  Location     Type
  1611 ;;		None
  1612 ;; Return value:  Size  Location     Type
  1613 ;;                  1    wreg      void 
  1614 ;; Registers used:
  1615 ;;		wreg, status,2
  1616 ;; Tracked objects:
  1617 ;;		On entry : 0/0
  1618 ;;		On exit  : 0/0
  1619 ;;		Unchanged: 0/0
  1620 ;; Data sizes:     COMRAM   BANK0   BANK1   BANK2   BANK3   BANK4   BANK5
  1621 ;;      Params:         0       0       0       0       0       0       0
  1622 ;;      Locals:         0       0       0       0       0       0       0
  1623 ;;      Temps:          0       0       0       0       0       0       0
  1624 ;;      Totals:         0       0       0       0       0       0       0
  1625 ;;Total ram usage:        0 bytes
  1626 ;; Hardware stack levels used: 1
  1627 ;; Hardware stack levels required when called: 3
  1628 ;; This function calls:
  1629 ;;		Nothing
  1630 ;; This function is called by:
  1631 ;;		_main
  1632 ;; This function uses a non-reentrant model
  1633 ;;
  1634                           
  1635                           	psect	text9
  1636  002512                     __ptext9:
  1637                           	callstack 0
  1638  002512                     _PortB_Int_Configuration:
  1639                           	callstack 27
  1640  002512                     
  1641                           ;newmain.c: 147:     PORTB = 0xff;
  1642  002512  6881               	setf	129,c	;volatile
  1643  002514                     
  1644                           ;newmain.c: 148:     INTCON = 0;
  1645  002514  0E00               	movlw	0
  1646  002516  6EF2               	movwf	242,c	;volatile
  1647  002518                     
  1648                           ;newmain.c: 149:     INTCONbits.RBIE = 1;
  1649  002518  86F2               	bsf	242,3,c	;volatile
  1650  00251A                     
  1651                           ;newmain.c: 150:     INTCONbits.GIE = 1;
  1652  00251A  8EF2               	bsf	242,7,c	;volatile
  1653  00251C  0012               	return		;funcret
  1654  00251E                     __end_of_PortB_Int_Configuration:
  1655                           	callstack 0
  1656                           
  1657 ;; *************** function _PWM1_Start *****************
  1658 ;; Defined at:
  1659 ;;		line 86 in file "newmain.c"
  1660 ;; Parameters:    Size  Location     Type
  1661 ;;		None
  1662 ;; Auto vars:     Size  Location     Type
  1663 ;;		None
  1664 ;; Return value:  Size  Location     Type
  1665 ;;                  1    wreg      void 
  1666 ;; Registers used:
  1667 ;;		None
  1668 ;; Tracked objects:
  1669 ;;		On entry : 0/0
  1670 ;;		On exit  : 0/0
  1671 ;;		Unchanged: 0/0
  1672 ;; Data sizes:     COMRAM   BANK0   BANK1   BANK2   BANK3   BANK4   BANK5
  1673 ;;      Params:         0       0       0       0       0       0       0
  1674 ;;      Locals:         0       0       0       0       0       0       0
  1675 ;;      Temps:          0       0       0       0       0       0       0
  1676 ;;      Totals:         0       0       0       0       0       0       0
  1677 ;;Total ram usage:        0 bytes
  1678 ;; Hardware stack levels used: 1
  1679 ;; Hardware stack levels required when called: 3
  1680 ;; This function calls:
  1681 ;;		Nothing
  1682 ;; This function is called by:
  1683 ;;		_main
  1684 ;; This function uses a non-reentrant model
  1685 ;;
  1686                           
  1687                           	psect	text10
  1688  002504                     __ptext10:
  1689                           	callstack 0
  1690  002504                     _PWM1_Start:
  1691                           	callstack 27
  1692  002504                     
  1693                           ;newmain.c: 89:     CCP1M3 = 1;
  1694  002504  86BD               	bsf	4029,3,c	;volatile
  1695                           
  1696                           ;newmain.c: 90:     CCP1M2 = 1;
  1697  002506  84BD               	bsf	4029,2,c	;volatile
  1698  002508                     
  1699                           ;newmain.c: 98:     {;newmain.c: 99:         T2CKPS0 = 1;
  1700  002508  80CA               	bsf	4042,0,c	;volatile
  1701                           
  1702                           ;newmain.c: 100:         T2CKPS1 = 0;
  1703  00250A  92CA               	bcf	4042,1,c	;volatile
  1704  00250C                     
  1705                           ;newmain.c: 107:     TMR2ON = 1;
  1706  00250C  84CA               	bsf	4042,2,c	;volatile
  1707                           
  1708                           ;newmain.c: 108:     TRISC2 = 0;
  1709  00250E  9494               	bcf	3988,2,c	;volatile
  1710  002510  0012               	return		;funcret
  1711  002512                     __end_of_PWM1_Start:
  1712                           	callstack 0
  1713                           
  1714 ;; *************** function _PWM1_Init *****************
  1715 ;; Defined at:
  1716 ;;		line 112 in file "newmain.c"
  1717 ;; Parameters:    Size  Location     Type
  1718 ;;  u32Frequency    4   14[BANK0 ] long 
  1719 ;; Auto vars:     Size  Location     Type
  1720 ;;		None
  1721 ;; Return value:  Size  Location     Type
  1722 ;;                  2   14[BANK0 ] int 
  1723 ;; Registers used:
  1724 ;;		wreg, status,2, status,0, cstack
  1725 ;; Tracked objects:
  1726 ;;		On entry : 0/0
  1727 ;;		On exit  : 0/0
  1728 ;;		Unchanged: 0/0
  1729 ;; Data sizes:     COMRAM   BANK0   BANK1   BANK2   BANK3   BANK4   BANK5
  1730 ;;      Params:         0       4       0       0       0       0       0
  1731 ;;      Locals:         0       0       0       0       0       0       0
  1732 ;;      Temps:          0       4       0       0       0       0       0
  1733 ;;      Totals:         0       8       0       0       0       0       0
  1734 ;;Total ram usage:        8 bytes
  1735 ;; Hardware stack levels used: 1
  1736 ;; Hardware stack levels required when called: 4
  1737 ;; This function calls:
  1738 ;;		___aldiv
  1739 ;; This function is called by:
  1740 ;;		_main
  1741 ;; This function uses a non-reentrant model
  1742 ;;
  1743                           
  1744                           	psect	text11
  1745  002340                     __ptext11:
  1746                           	callstack 0
  1747  002340                     _PWM1_Init:
  1748                           	callstack 26
  1749  002340                     
  1750                           ;newmain.c: 112: PWM1_Init(long u32Frequency);newmain.c: 113: {;newmain.c: 114:     PR2 
      +                          = (20000000/(u32Frequency*4*4)-1);
  1751  002340  0E00               	movlw	0
  1752  002342  0100               	movlb	0	; () banked
  1753  002344  6F80               	movwf	___aldiv@dividend& (0+255),b
  1754  002346  0E2D               	movlw	45
  1755  002348  6F81               	movwf	(___aldiv@dividend+1)& (0+255),b
  1756  00234A  0E31               	movlw	49
  1757  00234C  6F82               	movwf	(___aldiv@dividend+2)& (0+255),b
  1758  00234E  0E01               	movlw	1
  1759  002350  6F83               	movwf	(___aldiv@dividend+3)& (0+255),b
  1760  002352  C08E  F092         	movff	PWM1_Init@u32Frequency,??_PWM1_Init
  1761  002356  C08F  F093         	movff	PWM1_Init@u32Frequency+1,??_PWM1_Init+1
  1762  00235A  C090  F094         	movff	PWM1_Init@u32Frequency+2,??_PWM1_Init+2
  1763  00235E  C091  F095         	movff	PWM1_Init@u32Frequency+3,??_PWM1_Init+3
  1764  002362  0E02               	movlw	2
  1765  002364                     u2985:
  1766  002364  90D8               	bcf	status,0,c
  1767  002366  3792               	rlcf	??_PWM1_Init& (0+255),f,b
  1768  002368  3793               	rlcf	(??_PWM1_Init+1)& (0+255),f,b
  1769  00236A  3794               	rlcf	(??_PWM1_Init+2)& (0+255),f,b
  1770  00236C  3795               	rlcf	(??_PWM1_Init+3)& (0+255),f,b
  1771  00236E  2EE8               	decfsz	wreg,f,c
  1772  002370  EFB2  F011         	goto	u2985
  1773  002374  0E02               	movlw	2
  1774  002376                     u2995:
  1775  002376  90D8               	bcf	status,0,c
  1776  002378  3792               	rlcf	??_PWM1_Init& (0+255),f,b
  1777  00237A  3793               	rlcf	(??_PWM1_Init+1)& (0+255),f,b
  1778  00237C  3794               	rlcf	(??_PWM1_Init+2)& (0+255),f,b
  1779  00237E  3795               	rlcf	(??_PWM1_Init+3)& (0+255),f,b
  1780  002380  2EE8               	decfsz	wreg,f,c
  1781  002382  EFBB  F011         	goto	u2995
  1782  002386  C092  F084         	movff	??_PWM1_Init,___aldiv@divisor
  1783  00238A  C093  F085         	movff	??_PWM1_Init+1,___aldiv@divisor+1
  1784  00238E  C094  F086         	movff	??_PWM1_Init+2,___aldiv@divisor+2
  1785  002392  C095  F087         	movff	??_PWM1_Init+3,___aldiv@divisor+3
  1786  002396  EC35  F00E         	call	___aldiv	;wreg free
  1787  00239A  0100               	movlb	0	; () banked
  1788  00239C  0580               	decf	?___aldiv& (0+255),w,b
  1789  00239E  6ECB               	movwf	203,c	;volatile
  1790  0023A0                     
  1791                           ; BSR set to: 0
  1792                           ;newmain.c: 115:     u32TempFrequency = u32Frequency;
  1793  0023A0  C08E  F0E6         	movff	PWM1_Init@u32Frequency,_u32TempFrequency
  1794  0023A4  C08F  F0E7         	movff	PWM1_Init@u32Frequency+1,_u32TempFrequency+1
  1795  0023A8  C090  F0E8         	movff	PWM1_Init@u32Frequency+2,_u32TempFrequency+2
  1796  0023AC  C091  F0E9         	movff	PWM1_Init@u32Frequency+3,_u32TempFrequency+3
  1797  0023B0                     
  1798                           ; BSR set to: 0
  1799  0023B0  0012               	return		;funcret
  1800  0023B2                     __end_of_PWM1_Init:
  1801                           	callstack 0
  1802                           
  1803 ;; *************** function _PWM1_Duty *****************
  1804 ;; Defined at:
  1805 ;;		line 118 in file "newmain.c"
  1806 ;; Parameters:    Size  Location     Type
  1807 ;;  duty            2   88[BANK0 ] unsigned int 
  1808 ;; Auto vars:     Size  Location     Type
  1809 ;;		None
  1810 ;; Return value:  Size  Location     Type
  1811 ;;                  2   88[BANK0 ] int 
  1812 ;; Registers used:
  1813 ;;		wreg, status,2, status,0, prodl, prodh, cstack
  1814 ;; Tracked objects:
  1815 ;;		On entry : 0/0
  1816 ;;		On exit  : 0/0
  1817 ;;		Unchanged: 0/0
  1818 ;; Data sizes:     COMRAM   BANK0   BANK1   BANK2   BANK3   BANK4   BANK5
  1819 ;;      Params:         0       2       0       0       0       0       0
  1820 ;;      Locals:         0       0       0       0       0       0       0
  1821 ;;      Temps:          0       4       0       0       0       0       0
  1822 ;;      Totals:         0       6       0       0       0       0       0
  1823 ;;Total ram usage:        6 bytes
  1824 ;; Hardware stack levels used: 1
  1825 ;; Hardware stack levels required when called: 4
  1826 ;; This function calls:
  1827 ;;		___aldiv
  1828 ;;		___fldiv
  1829 ;;		___flmul
  1830 ;;		___fltol
  1831 ;;		___xxtofl
  1832 ;; This function is called by:
  1833 ;;		_main
  1834 ;; This function uses a non-reentrant model
  1835 ;;
  1836                           
  1837                           	psect	text12
  1838  001A3E                     __ptext12:
  1839                           	callstack 0
  1840  001A3E                     _PWM1_Duty:
  1841                           	callstack 26
  1842  001A3E                     
  1843                           ;newmain.c: 118: PWM1_Duty(unsigned int duty);newmain.c: 119: {;newmain.c: 120:     if (
      +                          duty<1024)
  1844  001A3E  0E04               	movlw	4
  1845  001A40  0100               	movlb	0	; () banked
  1846  001A42  5DD9               	subwf	(PWM1_Duty@duty+1)& (0+255),w,b
  1847  001A44  B0D8               	btfsc	status,0,c
  1848  001A46  EF27  F00D         	goto	u3001
  1849  001A4A  EF29  F00D         	goto	u3000
  1850  001A4E                     u3001:
  1851  001A4E  EFAB  F00D         	goto	l84
  1852  001A52                     u3000:
  1853  001A52                     
  1854                           ; BSR set to: 0
  1855                           ;newmain.c: 121:     {;newmain.c: 122:         duty = ((float)duty/1023)*(20000000/(u32T
      +                          empFrequency*4));
  1856  001A52  C0E6  F0DA         	movff	_u32TempFrequency,??_PWM1_Duty
  1857  001A56  C0E7  F0DB         	movff	_u32TempFrequency+1,??_PWM1_Duty+1
  1858  001A5A  C0E8  F0DC         	movff	_u32TempFrequency+2,??_PWM1_Duty+2
  1859  001A5E  C0E9  F0DD         	movff	_u32TempFrequency+3,??_PWM1_Duty+3
  1860  001A62  0E02               	movlw	2
  1861  001A64                     u3015:
  1862  001A64  90D8               	bcf	status,0,c
  1863  001A66  37DA               	rlcf	??_PWM1_Duty& (0+255),f,b
  1864  001A68  37DB               	rlcf	(??_PWM1_Duty+1)& (0+255),f,b
  1865  001A6A  37DC               	rlcf	(??_PWM1_Duty+2)& (0+255),f,b
  1866  001A6C  37DD               	rlcf	(??_PWM1_Duty+3)& (0+255),f,b
  1867  001A6E  2EE8               	decfsz	wreg,f,c
  1868  001A70  EF32  F00D         	goto	u3015
  1869  001A74  C0DA  F084         	movff	??_PWM1_Duty,___aldiv@divisor
  1870  001A78  C0DB  F085         	movff	??_PWM1_Duty+1,___aldiv@divisor+1
  1871  001A7C  C0DC  F086         	movff	??_PWM1_Duty+2,___aldiv@divisor+2
  1872  001A80  C0DD  F087         	movff	??_PWM1_Duty+3,___aldiv@divisor+3
  1873  001A84  0E00               	movlw	0
  1874  001A86  6F80               	movwf	___aldiv@dividend& (0+255),b
  1875  001A88  0E2D               	movlw	45
  1876  001A8A  6F81               	movwf	(___aldiv@dividend+1)& (0+255),b
  1877  001A8C  0E31               	movlw	49
  1878  001A8E  6F82               	movwf	(___aldiv@dividend+2)& (0+255),b
  1879  001A90  0E01               	movlw	1
  1880  001A92  6F83               	movwf	(___aldiv@dividend+3)& (0+255),b
  1881  001A94  EC35  F00E         	call	___aldiv	;wreg free
  1882  001A98  C080  F08E         	movff	?___aldiv,___xxtofl@val
  1883  001A9C  C081  F08F         	movff	?___aldiv+1,___xxtofl@val+1
  1884  001AA0  C082  F090         	movff	?___aldiv+2,___xxtofl@val+2
  1885  001AA4  C083  F091         	movff	?___aldiv+3,___xxtofl@val+3
  1886  001AA8  0E01               	movlw	1
  1887  001AAA  ECCE  F00A         	call	___xxtofl
  1888  001AAE  C08E  F0B9         	movff	?___xxtofl,___flmul@a
  1889  001AB2  C08F  F0BA         	movff	?___xxtofl+1,___flmul@a+1
  1890  001AB6  C090  F0BB         	movff	?___xxtofl+2,___flmul@a+2
  1891  001ABA  C091  F0BC         	movff	?___xxtofl+3,___flmul@a+3
  1892  001ABE  0E00               	movlw	0
  1893  001AC0  0100               	movlb	0	; () banked
  1894  001AC2  6FA0               	movwf	___fldiv@a& (0+255),b
  1895  001AC4  0EC0               	movlw	192
  1896  001AC6  6FA1               	movwf	(___fldiv@a+1)& (0+255),b
  1897  001AC8  0E7F               	movlw	127
  1898  001ACA  6FA2               	movwf	(___fldiv@a+2)& (0+255),b
  1899  001ACC  0E44               	movlw	68
  1900  001ACE  6FA3               	movwf	(___fldiv@a+3)& (0+255),b
  1901  001AD0  C0D8  F08E         	movff	PWM1_Duty@duty,___xxtofl@val
  1902  001AD4  C0D9  F08F         	movff	PWM1_Duty@duty+1,___xxtofl@val+1
  1903  001AD8  6B90               	clrf	(___xxtofl@val+2)& (0+255),b
  1904  001ADA  6B91               	clrf	(___xxtofl@val+3)& (0+255),b
  1905  001ADC  0E00               	movlw	0
  1906  001ADE  ECCE  F00A         	call	___xxtofl
  1907  001AE2  C08E  F09C         	movff	?___xxtofl,___fldiv@b
  1908  001AE6  C08F  F09D         	movff	?___xxtofl+1,___fldiv@b+1
  1909  001AEA  C090  F09E         	movff	?___xxtofl+2,___fldiv@b+2
  1910  001AEE  C091  F09F         	movff	?___xxtofl+3,___fldiv@b+3
  1911  001AF2  EC33  F007         	call	___fldiv	;wreg free
  1912  001AF6  C09C  F0B5         	movff	?___fldiv,___flmul@b
  1913  001AFA  C09D  F0B6         	movff	?___fldiv+1,___flmul@b+1
  1914  001AFE  C09E  F0B7         	movff	?___fldiv+2,___flmul@b+2
  1915  001B02  C09F  F0B8         	movff	?___fldiv+3,___flmul@b+3
  1916  001B06  EC08  F003         	call	___flmul	;wreg free
  1917  001B0A  C0B5  F0CE         	movff	?___flmul,___fltol@f1
  1918  001B0E  C0B6  F0CF         	movff	?___flmul+1,___fltol@f1+1
  1919  001B12  C0B7  F0D0         	movff	?___flmul+2,___fltol@f1+2
  1920  001B16  C0B8  F0D1         	movff	?___flmul+3,___fltol@f1+3
  1921  001B1A  EC42  F00F         	call	___fltol	;wreg free
  1922  001B1E  C0CE  F0D8         	movff	?___fltol,PWM1_Duty@duty
  1923  001B22  C0CF  F0D9         	movff	?___fltol+1,PWM1_Duty@duty+1
  1924  001B26                     
  1925                           ;newmain.c: 123:         CCP1X = duty & 2;
  1926  001B26  9ABD               	bcf	4029,5,c	;volatile
  1927  001B28                     
  1928                           ;newmain.c: 124:         CCP1Y = duty & 1;
  1929  001B28  0100               	movlb	0	; () banked
  1930  001B2A  B1D8               	btfsc	PWM1_Duty@duty& (0+255),0,b
  1931  001B2C  EF9A  F00D         	goto	u3021
  1932  001B30  EF9D  F00D         	goto	u3020
  1933  001B34                     u3021:
  1934  001B34  88BD               	bsf	4029,4,c	;volatile
  1935  001B36  EF9E  F00D         	goto	u3035
  1936  001B3A                     u3020:
  1937  001B3A  98BD               	bcf	4029,4,c	;volatile
  1938  001B3C                     u3035:
  1939  001B3C                     
  1940                           ;newmain.c: 125:         CCPR1L = duty >> 2;
  1941  001B3C  C0D8  F0DA         	movff	PWM1_Duty@duty,??_PWM1_Duty
  1942  001B40  C0D9  F0DB         	movff	PWM1_Duty@duty+1,??_PWM1_Duty+1
  1943  001B44  0100               	movlb	0	; () banked
  1944  001B46  90D8               	bcf	status,0,c
  1945  001B48  33DB               	rrcf	(??_PWM1_Duty+1)& (0+255),f,b
  1946  001B4A  33DA               	rrcf	??_PWM1_Duty& (0+255),f,b
  1947  001B4C  90D8               	bcf	status,0,c
  1948  001B4E  33DB               	rrcf	(??_PWM1_Duty+1)& (0+255),f,b
  1949  001B50  33DA               	rrcf	??_PWM1_Duty& (0+255),f,b
  1950  001B52  51DA               	movf	??_PWM1_Duty& (0+255),w,b
  1951  001B54  6EBE               	movwf	190,c	;volatile
  1952  001B56                     l84:
  1953                           
  1954                           ; BSR set to: 0
  1955  001B56  0012               	return		;funcret
  1956  001B58                     __end_of_PWM1_Duty:
  1957                           	callstack 0
  1958                           
  1959 ;; *************** function ___xxtofl *****************
  1960 ;; Defined at:
  1961 ;;		line 10 in file "C:\Program Files\Microchip\xc8\v2.32\pic\sources\c99\common\xxtofl.c"
  1962 ;; Parameters:    Size  Location     Type
  1963 ;;  sign            1    wreg     unsigned char 
  1964 ;;  val             4   14[BANK0 ] long 
  1965 ;; Auto vars:     Size  Location     Type
  1966 ;;  sign            1   22[BANK0 ] unsigned char 
  1967 ;;  arg             4   24[BANK0 ] unsigned long 
  1968 ;;  exp             1   23[BANK0 ] unsigned char 
  1969 ;; Return value:  Size  Location     Type
  1970 ;;                  4   14[BANK0 ] unsigned char 
  1971 ;; Registers used:
  1972 ;;		wreg, status,2, status,0
  1973 ;; Tracked objects:
  1974 ;;		On entry : 0/0
  1975 ;;		On exit  : 0/0
  1976 ;;		Unchanged: 0/0
  1977 ;; Data sizes:     COMRAM   BANK0   BANK1   BANK2   BANK3   BANK4   BANK5
  1978 ;;      Params:         0       4       0       0       0       0       0
  1979 ;;      Locals:         0       6       0       0       0       0       0
  1980 ;;      Temps:          0       4       0       0       0       0       0
  1981 ;;      Totals:         0      14       0       0       0       0       0
  1982 ;;Total ram usage:       14 bytes
  1983 ;; Hardware stack levels used: 1
  1984 ;; Hardware stack levels required when called: 3
  1985 ;; This function calls:
  1986 ;;		Nothing
  1987 ;; This function is called by:
  1988 ;;		_PWM1_Duty
  1989 ;; This function uses a non-reentrant model
  1990 ;;
  1991                           
  1992                           	psect	text13
  1993  00159C                     __ptext13:
  1994                           	callstack 0
  1995  00159C                     ___xxtofl:
  1996                           	callstack 26
  1997                           
  1998                           ; BSR set to: 0
  1999                           ;incstack = 0
  2000                           ;___xxtofl@sign stored from wreg
  2001  00159C  0100               	movlb	0	; () banked
  2002  00159E  6F96               	movwf	___xxtofl@sign& (0+255),b
  2003  0015A0  0100               	movlb	0	; () banked
  2004  0015A2  5196               	movf	___xxtofl@sign& (0+255),w,b
  2005  0015A4  B4D8               	btfsc	status,2,c
  2006  0015A6  EFD7  F00A         	goto	u2231
  2007  0015AA  EFD9  F00A         	goto	u2230
  2008  0015AE                     u2231:
  2009  0015AE  EFFB  F00A         	goto	l803
  2010  0015B2                     u2230:
  2011  0015B2                     
  2012                           ; BSR set to: 0
  2013  0015B2  BF91               	btfsc	(___xxtofl@val+3)& (0+255),7,b
  2014  0015B4  EFE0  F00A         	goto	u2240
  2015  0015B8  EFDE  F00A         	goto	u2241
  2016  0015BC                     u2241:
  2017  0015BC  EFFB  F00A         	goto	l803
  2018  0015C0                     u2240:
  2019  0015C0                     
  2020                           ; BSR set to: 0
  2021  0015C0  C08E  F092         	movff	___xxtofl@val,??___xxtofl
  2022  0015C4  C08F  F093         	movff	___xxtofl@val+1,??___xxtofl+1
  2023  0015C8  C090  F094         	movff	___xxtofl@val+2,??___xxtofl+2
  2024  0015CC  C091  F095         	movff	___xxtofl@val+3,??___xxtofl+3
  2025  0015D0  1F92               	comf	??___xxtofl& (0+255),f,b
  2026  0015D2  1F93               	comf	(??___xxtofl+1)& (0+255),f,b
  2027  0015D4  1F94               	comf	(??___xxtofl+2)& (0+255),f,b
  2028  0015D6  1F95               	comf	(??___xxtofl+3)& (0+255),f,b
  2029  0015D8  2B92               	incf	??___xxtofl& (0+255),f,b
  2030  0015DA  0E00               	movlw	0
  2031  0015DC  2393               	addwfc	(??___xxtofl+1)& (0+255),f,b
  2032  0015DE  2394               	addwfc	(??___xxtofl+2)& (0+255),f,b
  2033  0015E0  2395               	addwfc	(??___xxtofl+3)& (0+255),f,b
  2034  0015E2  C092  F098         	movff	??___xxtofl,___xxtofl@arg
  2035  0015E6  C093  F099         	movff	??___xxtofl+1,___xxtofl@arg+1
  2036  0015EA  C094  F09A         	movff	??___xxtofl+2,___xxtofl@arg+2
  2037  0015EE  C095  F09B         	movff	??___xxtofl+3,___xxtofl@arg+3
  2038  0015F2  EF03  F00B         	goto	l2325
  2039  0015F6                     l803:
  2040                           
  2041                           ; BSR set to: 0
  2042  0015F6  C08E  F098         	movff	___xxtofl@val,___xxtofl@arg
  2043  0015FA  C08F  F099         	movff	___xxtofl@val+1,___xxtofl@arg+1
  2044  0015FE  C090  F09A         	movff	___xxtofl@val+2,___xxtofl@arg+2
  2045  001602  C091  F09B         	movff	___xxtofl@val+3,___xxtofl@arg+3
  2046  001606                     l2325:
  2047                           
  2048                           ; BSR set to: 0
  2049  001606  518E               	movf	___xxtofl@val& (0+255),w,b
  2050  001608  118F               	iorwf	(___xxtofl@val+1)& (0+255),w,b
  2051  00160A  1190               	iorwf	(___xxtofl@val+2)& (0+255),w,b
  2052  00160C  1191               	iorwf	(___xxtofl@val+3)& (0+255),w,b
  2053  00160E  A4D8               	btfss	status,2,c
  2054  001610  EF0C  F00B         	goto	u2251
  2055  001614  EF0E  F00B         	goto	u2250
  2056  001618                     u2251:
  2057  001618  EF18  F00B         	goto	l2331
  2058  00161C                     u2250:
  2059  00161C                     
  2060                           ; BSR set to: 0
  2061  00161C  0E00               	movlw	0
  2062  00161E  6F8E               	movwf	?___xxtofl& (0+255),b
  2063  001620  0E00               	movlw	0
  2064  001622  6F8F               	movwf	(?___xxtofl+1)& (0+255),b
  2065  001624  0E00               	movlw	0
  2066  001626  6F90               	movwf	(?___xxtofl+2)& (0+255),b
  2067  001628  0E00               	movlw	0
  2068  00162A  6F91               	movwf	(?___xxtofl+3)& (0+255),b
  2069  00162C  EFA9  F00B         	goto	l806
  2070  001630                     l2331:
  2071                           
  2072                           ; BSR set to: 0
  2073  001630  0E96               	movlw	150
  2074  001632  6F97               	movwf	___xxtofl@exp& (0+255),b
  2075  001634  EF22  F00B         	goto	l2335
  2076  001638                     l2333:
  2077                           
  2078                           ; BSR set to: 0
  2079  001638  2B97               	incf	___xxtofl@exp& (0+255),f,b
  2080  00163A  90D8               	bcf	status,0,c
  2081  00163C  339B               	rrcf	(___xxtofl@arg+3)& (0+255),f,b
  2082  00163E  339A               	rrcf	(___xxtofl@arg+2)& (0+255),f,b
  2083  001640  3399               	rrcf	(___xxtofl@arg+1)& (0+255),f,b
  2084  001642  3398               	rrcf	___xxtofl@arg& (0+255),f,b
  2085  001644                     l2335:
  2086                           
  2087                           ; BSR set to: 0
  2088  001644  0E00               	movlw	0
  2089  001646  1598               	andwf	___xxtofl@arg& (0+255),w,b
  2090  001648  6F92               	movwf	??___xxtofl& (0+255),b
  2091  00164A  0E00               	movlw	0
  2092  00164C  1599               	andwf	(___xxtofl@arg+1)& (0+255),w,b
  2093  00164E  6F93               	movwf	(??___xxtofl+1)& (0+255),b
  2094  001650  0E00               	movlw	0
  2095  001652  159A               	andwf	(___xxtofl@arg+2)& (0+255),w,b
  2096  001654  6F94               	movwf	(??___xxtofl+2)& (0+255),b
  2097  001656  0EFE               	movlw	254
  2098  001658  159B               	andwf	(___xxtofl@arg+3)& (0+255),w,b
  2099  00165A  6F95               	movwf	(??___xxtofl+3)& (0+255),b
  2100  00165C  5192               	movf	??___xxtofl& (0+255),w,b
  2101  00165E  1193               	iorwf	(??___xxtofl+1)& (0+255),w,b
  2102  001660  1194               	iorwf	(??___xxtofl+2)& (0+255),w,b
  2103  001662  1195               	iorwf	(??___xxtofl+3)& (0+255),w,b
  2104  001664  A4D8               	btfss	status,2,c
  2105  001666  EF37  F00B         	goto	u2261
  2106  00166A  EF39  F00B         	goto	u2260
  2107  00166E                     u2261:
  2108  00166E  EF1C  F00B         	goto	l2333
  2109  001672                     u2260:
  2110  001672  EF47  F00B         	goto	l810
  2111  001676                     l2337:
  2112                           
  2113                           ; BSR set to: 0
  2114  001676  2B97               	incf	___xxtofl@exp& (0+255),f,b
  2115  001678                     
  2116                           ; BSR set to: 0
  2117  001678  0E01               	movlw	1
  2118  00167A  2798               	addwf	___xxtofl@arg& (0+255),f,b
  2119  00167C  0E00               	movlw	0
  2120  00167E  2399               	addwfc	(___xxtofl@arg+1)& (0+255),f,b
  2121  001680  239A               	addwfc	(___xxtofl@arg+2)& (0+255),f,b
  2122  001682  239B               	addwfc	(___xxtofl@arg+3)& (0+255),f,b
  2123  001684                     
  2124                           ; BSR set to: 0
  2125  001684  90D8               	bcf	status,0,c
  2126  001686  339B               	rrcf	(___xxtofl@arg+3)& (0+255),f,b
  2127  001688  339A               	rrcf	(___xxtofl@arg+2)& (0+255),f,b
  2128  00168A  3399               	rrcf	(___xxtofl@arg+1)& (0+255),f,b
  2129  00168C  3398               	rrcf	___xxtofl@arg& (0+255),f,b
  2130  00168E                     l810:
  2131                           
  2132                           ; BSR set to: 0
  2133  00168E  0E00               	movlw	0
  2134  001690  1598               	andwf	___xxtofl@arg& (0+255),w,b
  2135  001692  6F92               	movwf	??___xxtofl& (0+255),b
  2136  001694  0E00               	movlw	0
  2137  001696  1599               	andwf	(___xxtofl@arg+1)& (0+255),w,b
  2138  001698  6F93               	movwf	(??___xxtofl+1)& (0+255),b
  2139  00169A  0E00               	movlw	0
  2140  00169C  159A               	andwf	(___xxtofl@arg+2)& (0+255),w,b
  2141  00169E  6F94               	movwf	(??___xxtofl+2)& (0+255),b
  2142  0016A0  0EFF               	movlw	255
  2143  0016A2  159B               	andwf	(___xxtofl@arg+3)& (0+255),w,b
  2144  0016A4  6F95               	movwf	(??___xxtofl+3)& (0+255),b
  2145  0016A6  5192               	movf	??___xxtofl& (0+255),w,b
  2146  0016A8  1193               	iorwf	(??___xxtofl+1)& (0+255),w,b
  2147  0016AA  1194               	iorwf	(??___xxtofl+2)& (0+255),w,b
  2148  0016AC  1195               	iorwf	(??___xxtofl+3)& (0+255),w,b
  2149  0016AE  A4D8               	btfss	status,2,c
  2150  0016B0  EF5C  F00B         	goto	u2271
  2151  0016B4  EF5E  F00B         	goto	u2270
  2152  0016B8                     u2271:
  2153  0016B8  EF3B  F00B         	goto	l2337
  2154  0016BC                     u2270:
  2155  0016BC  EF66  F00B         	goto	l2345
  2156  0016C0                     l2343:
  2157                           
  2158                           ; BSR set to: 0
  2159  0016C0  0797               	decf	___xxtofl@exp& (0+255),f,b
  2160  0016C2  90D8               	bcf	status,0,c
  2161  0016C4  3798               	rlcf	___xxtofl@arg& (0+255),f,b
  2162  0016C6  3799               	rlcf	(___xxtofl@arg+1)& (0+255),f,b
  2163  0016C8  379A               	rlcf	(___xxtofl@arg+2)& (0+255),f,b
  2164  0016CA  379B               	rlcf	(___xxtofl@arg+3)& (0+255),f,b
  2165  0016CC                     l2345:
  2166                           
  2167                           ; BSR set to: 0
  2168  0016CC  BF9A               	btfsc	(___xxtofl@arg+2)& (0+255),7,b
  2169  0016CE  EF6B  F00B         	goto	u2281
  2170  0016D2  EF6D  F00B         	goto	u2280
  2171  0016D6                     u2281:
  2172  0016D6  EF75  F00B         	goto	l817
  2173  0016DA                     u2280:
  2174  0016DA                     
  2175                           ; BSR set to: 0
  2176  0016DA  0E02               	movlw	2
  2177  0016DC  6197               	cpfslt	___xxtofl@exp& (0+255),b
  2178  0016DE  EF73  F00B         	goto	u2291
  2179  0016E2  EF75  F00B         	goto	u2290
  2180  0016E6                     u2291:
  2181  0016E6  EF60  F00B         	goto	l2343
  2182  0016EA                     u2290:
  2183  0016EA                     l817:
  2184                           
  2185                           ; BSR set to: 0
  2186  0016EA  B197               	btfsc	___xxtofl@exp& (0+255),0,b
  2187  0016EC  EF7A  F00B         	goto	u2301
  2188  0016F0  EF7C  F00B         	goto	u2300
  2189  0016F4                     u2301:
  2190  0016F4  EF7D  F00B         	goto	l2351
  2191  0016F8                     u2300:
  2192  0016F8                     
  2193                           ; BSR set to: 0
  2194  0016F8  9F9A               	bcf	(___xxtofl@arg+2)& (0+255),7,b
  2195  0016FA                     l2351:
  2196                           
  2197                           ; BSR set to: 0
  2198  0016FA  90D8               	bcf	status,0,c
  2199  0016FC  3397               	rrcf	___xxtofl@exp& (0+255),f,b
  2200  0016FE                     
  2201                           ; BSR set to: 0
  2202  0016FE  C097  F092         	movff	___xxtofl@exp,??___xxtofl
  2203  001702  6B93               	clrf	(??___xxtofl+1)& (0+255),b
  2204  001704  6B94               	clrf	(??___xxtofl+2)& (0+255),b
  2205  001706  6B95               	clrf	(??___xxtofl+3)& (0+255),b
  2206  001708  C092  F095         	movff	??___xxtofl,??___xxtofl+3
  2207  00170C  6B94               	clrf	(??___xxtofl+2)& (0+255),b
  2208  00170E  6B93               	clrf	(??___xxtofl+1)& (0+255),b
  2209  001710  6B92               	clrf	??___xxtofl& (0+255),b
  2210  001712  5192               	movf	??___xxtofl& (0+255),w,b
  2211  001714  1398               	iorwf	___xxtofl@arg& (0+255),f,b
  2212  001716  5193               	movf	(??___xxtofl+1)& (0+255),w,b
  2213  001718  1399               	iorwf	(___xxtofl@arg+1)& (0+255),f,b
  2214  00171A  5194               	movf	(??___xxtofl+2)& (0+255),w,b
  2215  00171C  139A               	iorwf	(___xxtofl@arg+2)& (0+255),f,b
  2216  00171E  5195               	movf	(??___xxtofl+3)& (0+255),w,b
  2217  001720  139B               	iorwf	(___xxtofl@arg+3)& (0+255),f,b
  2218  001722                     
  2219                           ; BSR set to: 0
  2220  001722  5196               	movf	___xxtofl@sign& (0+255),w,b
  2221  001724  B4D8               	btfsc	status,2,c
  2222  001726  EF97  F00B         	goto	u2311
  2223  00172A  EF99  F00B         	goto	u2310
  2224  00172E                     u2311:
  2225  00172E  EFA1  F00B         	goto	l2361
  2226  001732                     u2310:
  2227  001732                     
  2228                           ; BSR set to: 0
  2229  001732  BF91               	btfsc	(___xxtofl@val+3)& (0+255),7,b
  2230  001734  EFA0  F00B         	goto	u2320
  2231  001738  EF9E  F00B         	goto	u2321
  2232  00173C                     u2321:
  2233  00173C  EFA1  F00B         	goto	l2361
  2234  001740                     u2320:
  2235  001740                     
  2236                           ; BSR set to: 0
  2237  001740  8F9B               	bsf	(___xxtofl@arg+3)& (0+255),7,b
  2238  001742                     l2361:
  2239                           
  2240                           ; BSR set to: 0
  2241  001742  C098  F08E         	movff	___xxtofl@arg,?___xxtofl
  2242  001746  C099  F08F         	movff	___xxtofl@arg+1,?___xxtofl+1
  2243  00174A  C09A  F090         	movff	___xxtofl@arg+2,?___xxtofl+2
  2244  00174E  C09B  F091         	movff	___xxtofl@arg+3,?___xxtofl+3
  2245  001752                     l806:
  2246                           
  2247                           ; BSR set to: 0
  2248  001752  0012               	return		;funcret
  2249  001754                     __end_of___xxtofl:
  2250                           	callstack 0
  2251                           
  2252 ;; *************** function ___fltol *****************
  2253 ;; Defined at:
  2254 ;;		line 43 in file "C:\Program Files\Microchip\xc8\v2.32\pic\sources\c99\common\fltol.c"
  2255 ;; Parameters:    Size  Location     Type
  2256 ;;  f1              4   78[BANK0 ] unsigned char 
  2257 ;; Auto vars:     Size  Location     Type
  2258 ;;  exp1            1   87[BANK0 ] unsigned char 
  2259 ;;  sign1           1   86[BANK0 ] unsigned char 
  2260 ;; Return value:  Size  Location     Type
  2261 ;;                  4   78[BANK0 ] long 
  2262 ;; Registers used:
  2263 ;;		wreg, status,2, status,0
  2264 ;; Tracked objects:
  2265 ;;		On entry : 0/0
  2266 ;;		On exit  : 0/0
  2267 ;;		Unchanged: 0/0
  2268 ;; Data sizes:     COMRAM   BANK0   BANK1   BANK2   BANK3   BANK4   BANK5
  2269 ;;      Params:         0       4       0       0       0       0       0
  2270 ;;      Locals:         0       2       0       0       0       0       0
  2271 ;;      Temps:          0       4       0       0       0       0       0
  2272 ;;      Totals:         0      10       0       0       0       0       0
  2273 ;;Total ram usage:       10 bytes
  2274 ;; Hardware stack levels used: 1
  2275 ;; Hardware stack levels required when called: 3
  2276 ;; This function calls:
  2277 ;;		Nothing
  2278 ;; This function is called by:
  2279 ;;		_PWM1_Duty
  2280 ;; This function uses a non-reentrant model
  2281 ;;
  2282                           
  2283                           	psect	text14
  2284  001E84                     __ptext14:
  2285                           	callstack 0
  2286  001E84                     ___fltol:
  2287                           	callstack 26
  2288  001E84  0100               	movlb	0	; () banked
  2289  001E86  35D0               	rlcf	(___fltol@f1+2)& (0+255),w,b
  2290  001E88  35D1               	rlcf	(___fltol@f1+3)& (0+255),w,b
  2291  001E8A  6FD7               	movwf	___fltol@exp1& (0+255),b
  2292  001E8C  51D7               	movf	___fltol@exp1& (0+255),w,b
  2293  001E8E  A4D8               	btfss	status,2,c
  2294  001E90  EF4C  F00F         	goto	u2161
  2295  001E94  EF4E  F00F         	goto	u2160
  2296  001E98                     u2161:
  2297  001E98  EF58  F00F         	goto	l2281
  2298  001E9C                     u2160:
  2299  001E9C                     l2277:
  2300                           
  2301                           ; BSR set to: 0
  2302  001E9C  0E00               	movlw	0
  2303  001E9E  6FCE               	movwf	?___fltol& (0+255),b
  2304  001EA0  0E00               	movlw	0
  2305  001EA2  6FCF               	movwf	(?___fltol+1)& (0+255),b
  2306  001EA4  0E00               	movlw	0
  2307  001EA6  6FD0               	movwf	(?___fltol+2)& (0+255),b
  2308  001EA8  0E00               	movlw	0
  2309  001EAA  6FD1               	movwf	(?___fltol+3)& (0+255),b
  2310  001EAC  EFC5  F00F         	goto	l445
  2311  001EB0                     l2281:
  2312                           
  2313                           ; BSR set to: 0
  2314  001EB0  C0CE  F0D2         	movff	___fltol@f1,??___fltol
  2315  001EB4  C0CF  F0D3         	movff	___fltol@f1+1,??___fltol+1
  2316  001EB8  C0D0  F0D4         	movff	___fltol@f1+2,??___fltol+2
  2317  001EBC  C0D1  F0D5         	movff	___fltol@f1+3,??___fltol+3
  2318  001EC0  0E20               	movlw	32
  2319  001EC2  EF68  F00F         	goto	u2170
  2320  001EC6                     u2175:
  2321  001EC6  90D8               	bcf	status,0,c
  2322  001EC8  33D5               	rrcf	(??___fltol+3)& (0+255),f,b
  2323  001ECA  33D4               	rrcf	(??___fltol+2)& (0+255),f,b
  2324  001ECC  33D3               	rrcf	(??___fltol+1)& (0+255),f,b
  2325  001ECE  33D2               	rrcf	??___fltol& (0+255),f,b
  2326  001ED0                     u2170:
  2327  001ED0  2EE8               	decfsz	wreg,f,c
  2328  001ED2  EF63  F00F         	goto	u2175
  2329  001ED6  51D2               	movf	??___fltol& (0+255),w,b
  2330  001ED8  6FD6               	movwf	___fltol@sign1& (0+255),b
  2331  001EDA                     
  2332                           ; BSR set to: 0
  2333  001EDA  8FD0               	bsf	(___fltol@f1+2)& (0+255),7,b
  2334  001EDC                     
  2335                           ; BSR set to: 0
  2336  001EDC  0EFF               	movlw	255
  2337  001EDE  17CE               	andwf	___fltol@f1& (0+255),f,b
  2338  001EE0  0EFF               	movlw	255
  2339  001EE2  17CF               	andwf	(___fltol@f1+1)& (0+255),f,b
  2340  001EE4  0EFF               	movlw	255
  2341  001EE6  17D0               	andwf	(___fltol@f1+2)& (0+255),f,b
  2342  001EE8  0E00               	movlw	0
  2343  001EEA  17D1               	andwf	(___fltol@f1+3)& (0+255),f,b
  2344  001EEC                     
  2345                           ; BSR set to: 0
  2346  001EEC  0E96               	movlw	150
  2347  001EEE  5FD7               	subwf	___fltol@exp1& (0+255),f,b
  2348  001EF0                     
  2349                           ; BSR set to: 0
  2350  001EF0  BFD7               	btfsc	___fltol@exp1& (0+255),7,b
  2351  001EF2  EF7F  F00F         	goto	u2180
  2352  001EF6  EF7D  F00F         	goto	u2181
  2353  001EFA                     u2181:
  2354  001EFA  EF95  F00F         	goto	l2301
  2355  001EFE                     u2180:
  2356  001EFE                     
  2357                           ; BSR set to: 0
  2358  001EFE  51D7               	movf	___fltol@exp1& (0+255),w,b
  2359  001F00  0A80               	xorlw	128
  2360  001F02  0F97               	addlw	151
  2361  001F04  B0D8               	btfsc	status,0,c
  2362  001F06  EF87  F00F         	goto	u2191
  2363  001F0A  EF89  F00F         	goto	u2190
  2364  001F0E                     u2191:
  2365  001F0E  EF8B  F00F         	goto	l2297
  2366  001F12                     u2190:
  2367  001F12  EF4E  F00F         	goto	l2277
  2368  001F16                     l2297:
  2369                           
  2370                           ; BSR set to: 0
  2371  001F16  90D8               	bcf	status,0,c
  2372  001F18  33D1               	rrcf	(___fltol@f1+3)& (0+255),f,b
  2373  001F1A  33D0               	rrcf	(___fltol@f1+2)& (0+255),f,b
  2374  001F1C  33CF               	rrcf	(___fltol@f1+1)& (0+255),f,b
  2375  001F1E  33CE               	rrcf	___fltol@f1& (0+255),f,b
  2376  001F20                     
  2377                           ; BSR set to: 0
  2378  001F20  3FD7               	incfsz	___fltol@exp1& (0+255),f,b
  2379  001F22  EF8B  F00F         	goto	l2297
  2380  001F26  EFAD  F00F         	goto	l2311
  2381  001F2A                     l2301:
  2382                           
  2383                           ; BSR set to: 0
  2384  001F2A  0E1F               	movlw	31
  2385  001F2C  65D7               	cpfsgt	___fltol@exp1& (0+255),b
  2386  001F2E  EF9B  F00F         	goto	u2201
  2387  001F32  EF9D  F00F         	goto	u2200
  2388  001F36                     u2201:
  2389  001F36  EFA5  F00F         	goto	l2309
  2390  001F3A                     u2200:
  2391  001F3A  EF4E  F00F         	goto	l2277
  2392  001F3E                     l2307:
  2393                           
  2394                           ; BSR set to: 0
  2395  001F3E  90D8               	bcf	status,0,c
  2396  001F40  37CE               	rlcf	___fltol@f1& (0+255),f,b
  2397  001F42  37CF               	rlcf	(___fltol@f1+1)& (0+255),f,b
  2398  001F44  37D0               	rlcf	(___fltol@f1+2)& (0+255),f,b
  2399  001F46  37D1               	rlcf	(___fltol@f1+3)& (0+255),f,b
  2400  001F48  07D7               	decf	___fltol@exp1& (0+255),f,b
  2401  001F4A                     l2309:
  2402                           
  2403                           ; BSR set to: 0
  2404  001F4A  51D7               	movf	___fltol@exp1& (0+255),w,b
  2405  001F4C  A4D8               	btfss	status,2,c
  2406  001F4E  EFAB  F00F         	goto	u2211
  2407  001F52  EFAD  F00F         	goto	u2210
  2408  001F56                     u2211:
  2409  001F56  EF9F  F00F         	goto	l2307
  2410  001F5A                     u2210:
  2411  001F5A                     l2311:
  2412                           
  2413                           ; BSR set to: 0
  2414  001F5A  51D6               	movf	___fltol@sign1& (0+255),w,b
  2415  001F5C  B4D8               	btfsc	status,2,c
  2416  001F5E  EFB3  F00F         	goto	u2221
  2417  001F62  EFB5  F00F         	goto	u2220
  2418  001F66                     u2221:
  2419  001F66  EFBD  F00F         	goto	l2315
  2420  001F6A                     u2220:
  2421  001F6A                     
  2422                           ; BSR set to: 0
  2423  001F6A  1FD1               	comf	(___fltol@f1+3)& (0+255),f,b
  2424  001F6C  1FD0               	comf	(___fltol@f1+2)& (0+255),f,b
  2425  001F6E  1FCF               	comf	(___fltol@f1+1)& (0+255),f,b
  2426  001F70  6DCE               	negf	___fltol@f1& (0+255),b
  2427  001F72  0E00               	movlw	0
  2428  001F74  23CF               	addwfc	(___fltol@f1+1)& (0+255),f,b
  2429  001F76  23D0               	addwfc	(___fltol@f1+2)& (0+255),f,b
  2430  001F78  23D1               	addwfc	(___fltol@f1+3)& (0+255),f,b
  2431  001F7A                     l2315:
  2432                           
  2433                           ; BSR set to: 0
  2434  001F7A  C0CE  F0CE         	movff	___fltol@f1,?___fltol
  2435  001F7E  C0CF  F0CF         	movff	___fltol@f1+1,?___fltol+1
  2436  001F82  C0D0  F0D0         	movff	___fltol@f1+2,?___fltol+2
  2437  001F86  C0D1  F0D1         	movff	___fltol@f1+3,?___fltol+3
  2438  001F8A                     l445:
  2439                           
  2440                           ; BSR set to: 0
  2441  001F8A  0012               	return		;funcret
  2442  001F8C                     __end_of___fltol:
  2443                           	callstack 0
  2444                           
  2445 ;; *************** function ___flmul *****************
  2446 ;; Defined at:
  2447 ;;		line 8 in file "C:\Program Files\Microchip\xc8\v2.32\pic\sources\c99\common\sprcmul.c"
  2448 ;; Parameters:    Size  Location     Type
  2449 ;;  b               4   53[BANK0 ] long 
  2450 ;;  a               4   57[BANK0 ] long 
  2451 ;; Auto vars:     Size  Location     Type
  2452 ;;  prod            4   72[BANK0 ] struct .
  2453 ;;  grs             4   66[BANK0 ] unsigned long 
  2454 ;;  temp            2   76[BANK0 ] struct .
  2455 ;;  bexp            1   71[BANK0 ] unsigned char 
  2456 ;;  aexp            1   70[BANK0 ] unsigned char 
  2457 ;;  sign            1   65[BANK0 ] unsigned char 
  2458 ;; Return value:  Size  Location     Type
  2459 ;;                  4   53[BANK0 ] unsigned char 
  2460 ;; Registers used:
  2461 ;;		wreg, status,2, status,0, prodl, prodh
  2462 ;; Tracked objects:
  2463 ;;		On entry : 0/0
  2464 ;;		On exit  : 0/0
  2465 ;;		Unchanged: 0/0
  2466 ;; Data sizes:     COMRAM   BANK0   BANK1   BANK2   BANK3   BANK4   BANK5
  2467 ;;      Params:         0       8       0       0       0       0       0
  2468 ;;      Locals:         0      13       0       0       0       0       0
  2469 ;;      Temps:          0       4       0       0       0       0       0
  2470 ;;      Totals:         0      25       0       0       0       0       0
  2471 ;;Total ram usage:       25 bytes
  2472 ;; Hardware stack levels used: 1
  2473 ;; Hardware stack levels required when called: 3
  2474 ;; This function calls:
  2475 ;;		Nothing
  2476 ;; This function is called by:
  2477 ;;		_PWM1_Duty
  2478 ;; This function uses a non-reentrant model
  2479 ;;
  2480                           
  2481                           	psect	text15
  2482  000610                     __ptext15:
  2483                           	callstack 0
  2484  000610                     ___flmul:
  2485                           	callstack 26
  2486  000610  0100               	movlb	0	; () banked
  2487  000612  51B8               	movf	(___flmul@b+3)& (0+255),w,b
  2488  000614  0B80               	andlw	128
  2489  000616  6FC1               	movwf	___flmul@sign& (0+255),b
  2490  000618  51B8               	movf	(___flmul@b+3)& (0+255),w,b
  2491  00061A  25B8               	addwf	(___flmul@b+3)& (0+255),w,b
  2492  00061C  6FC7               	movwf	___flmul@bexp& (0+255),b
  2493  00061E                     
  2494                           ; BSR set to: 0
  2495  00061E  AFB7               	btfss	(___flmul@b+2)& (0+255),7,b
  2496  000620  EF14  F003         	goto	u1911
  2497  000624  EF16  F003         	goto	u1910
  2498  000628                     u1911:
  2499  000628  EF17  F003         	goto	l2107
  2500  00062C                     u1910:
  2501  00062C                     
  2502                           ; BSR set to: 0
  2503  00062C  81C7               	bsf	___flmul@bexp& (0+255),0,b
  2504  00062E                     l2107:
  2505                           
  2506                           ; BSR set to: 0
  2507  00062E  51C7               	movf	___flmul@bexp& (0+255),w,b
  2508  000630  B4D8               	btfsc	status,2,c
  2509  000632  EF1D  F003         	goto	u1921
  2510  000636  EF1F  F003         	goto	u1920
  2511  00063A                     u1921:
  2512  00063A  EF32  F003         	goto	l2115
  2513  00063E                     u1920:
  2514  00063E                     
  2515                           ; BSR set to: 0
  2516  00063E  29C7               	incf	___flmul@bexp& (0+255),w,b
  2517  000640  A4D8               	btfss	status,2,c
  2518  000642  EF25  F003         	goto	u1931
  2519  000646  EF27  F003         	goto	u1930
  2520  00064A                     u1931:
  2521  00064A  EF2F  F003         	goto	l2113
  2522  00064E                     u1930:
  2523  00064E                     
  2524                           ; BSR set to: 0
  2525  00064E  0E00               	movlw	0
  2526  000650  6FB5               	movwf	___flmul@b& (0+255),b
  2527  000652  0E00               	movlw	0
  2528  000654  6FB6               	movwf	(___flmul@b+1)& (0+255),b
  2529  000656  0E00               	movlw	0
  2530  000658  6FB7               	movwf	(___flmul@b+2)& (0+255),b
  2531  00065A  0E00               	movlw	0
  2532  00065C  6FB8               	movwf	(___flmul@b+3)& (0+255),b
  2533  00065E                     l2113:
  2534                           
  2535                           ; BSR set to: 0
  2536  00065E  8FB7               	bsf	(___flmul@b+2)& (0+255),7,b
  2537  000660  EF3A  F003         	goto	l2117
  2538  000664                     l2115:
  2539                           
  2540                           ; BSR set to: 0
  2541  000664  0E00               	movlw	0
  2542  000666  6FB5               	movwf	___flmul@b& (0+255),b
  2543  000668  0E00               	movlw	0
  2544  00066A  6FB6               	movwf	(___flmul@b+1)& (0+255),b
  2545  00066C  0E00               	movlw	0
  2546  00066E  6FB7               	movwf	(___flmul@b+2)& (0+255),b
  2547  000670  0E00               	movlw	0
  2548  000672  6FB8               	movwf	(___flmul@b+3)& (0+255),b
  2549  000674                     l2117:
  2550                           
  2551                           ; BSR set to: 0
  2552  000674  51BC               	movf	(___flmul@a+3)& (0+255),w,b
  2553  000676  0B80               	andlw	128
  2554  000678  1BC1               	xorwf	___flmul@sign& (0+255),f,b
  2555  00067A                     
  2556                           ; BSR set to: 0
  2557  00067A  51BC               	movf	(___flmul@a+3)& (0+255),w,b
  2558  00067C  25BC               	addwf	(___flmul@a+3)& (0+255),w,b
  2559  00067E  6FC6               	movwf	___flmul@aexp& (0+255),b
  2560  000680                     
  2561                           ; BSR set to: 0
  2562  000680  AFBB               	btfss	(___flmul@a+2)& (0+255),7,b
  2563  000682  EF45  F003         	goto	u1941
  2564  000686  EF47  F003         	goto	u1940
  2565  00068A                     u1941:
  2566  00068A  EF48  F003         	goto	l2125
  2567  00068E                     u1940:
  2568  00068E                     
  2569                           ; BSR set to: 0
  2570  00068E  81C6               	bsf	___flmul@aexp& (0+255),0,b
  2571  000690                     l2125:
  2572                           
  2573                           ; BSR set to: 0
  2574  000690  51C6               	movf	___flmul@aexp& (0+255),w,b
  2575  000692  B4D8               	btfsc	status,2,c
  2576  000694  EF4E  F003         	goto	u1951
  2577  000698  EF50  F003         	goto	u1950
  2578  00069C                     u1951:
  2579  00069C  EF63  F003         	goto	l2133
  2580  0006A0                     u1950:
  2581  0006A0                     
  2582                           ; BSR set to: 0
  2583  0006A0  29C6               	incf	___flmul@aexp& (0+255),w,b
  2584  0006A2  A4D8               	btfss	status,2,c
  2585  0006A4  EF56  F003         	goto	u1961
  2586  0006A8  EF58  F003         	goto	u1960
  2587  0006AC                     u1961:
  2588  0006AC  EF60  F003         	goto	l2131
  2589  0006B0                     u1960:
  2590  0006B0                     
  2591                           ; BSR set to: 0
  2592  0006B0  0E00               	movlw	0
  2593  0006B2  6FB9               	movwf	___flmul@a& (0+255),b
  2594  0006B4  0E00               	movlw	0
  2595  0006B6  6FBA               	movwf	(___flmul@a+1)& (0+255),b
  2596  0006B8  0E00               	movlw	0
  2597  0006BA  6FBB               	movwf	(___flmul@a+2)& (0+255),b
  2598  0006BC  0E00               	movlw	0
  2599  0006BE  6FBC               	movwf	(___flmul@a+3)& (0+255),b
  2600  0006C0                     l2131:
  2601                           
  2602                           ; BSR set to: 0
  2603  0006C0  8FBB               	bsf	(___flmul@a+2)& (0+255),7,b
  2604  0006C2  EF6B  F003         	goto	l762
  2605  0006C6                     l2133:
  2606                           
  2607                           ; BSR set to: 0
  2608  0006C6  0E00               	movlw	0
  2609  0006C8  6FB9               	movwf	___flmul@a& (0+255),b
  2610  0006CA  0E00               	movlw	0
  2611  0006CC  6FBA               	movwf	(___flmul@a+1)& (0+255),b
  2612  0006CE  0E00               	movlw	0
  2613  0006D0  6FBB               	movwf	(___flmul@a+2)& (0+255),b
  2614  0006D2  0E00               	movlw	0
  2615  0006D4  6FBC               	movwf	(___flmul@a+3)& (0+255),b
  2616  0006D6                     l762:
  2617                           
  2618                           ; BSR set to: 0
  2619  0006D6  51C6               	movf	___flmul@aexp& (0+255),w,b
  2620  0006D8  B4D8               	btfsc	status,2,c
  2621  0006DA  EF71  F003         	goto	u1971
  2622  0006DE  EF73  F003         	goto	u1970
  2623  0006E2                     u1971:
  2624  0006E2  EF7B  F003         	goto	l2137
  2625  0006E6                     u1970:
  2626  0006E6                     
  2627                           ; BSR set to: 0
  2628  0006E6  51C7               	movf	___flmul@bexp& (0+255),w,b
  2629  0006E8  A4D8               	btfss	status,2,c
  2630  0006EA  EF79  F003         	goto	u1981
  2631  0006EE  EF7B  F003         	goto	u1980
  2632  0006F2                     u1981:
  2633  0006F2  EF85  F003         	goto	l2141
  2634  0006F6                     u1980:
  2635  0006F6                     l2137:
  2636                           
  2637                           ; BSR set to: 0
  2638  0006F6  0E00               	movlw	0
  2639  0006F8  6FB5               	movwf	?___flmul& (0+255),b
  2640  0006FA  0E00               	movlw	0
  2641  0006FC  6FB6               	movwf	(?___flmul+1)& (0+255),b
  2642  0006FE  0E00               	movlw	0
  2643  000700  6FB7               	movwf	(?___flmul+2)& (0+255),b
  2644  000702  0E00               	movlw	0
  2645  000704  6FB8               	movwf	(?___flmul+3)& (0+255),b
  2646  000706  EF1D  F005         	goto	l766
  2647  00070A                     l2141:
  2648                           
  2649                           ; BSR set to: 0
  2650  00070A  51BB               	movf	(___flmul@a+2)& (0+255),w,b
  2651  00070C  03B5               	mulwf	___flmul@b& (0+255),b
  2652  00070E  CFF3 F0CC          	movff	prodl,___flmul@temp
  2653  000712  CFF4 F0CD          	movff	prodh,___flmul@temp+1
  2654  000716                     
  2655                           ; BSR set to: 0
  2656  000716  51CC               	movf	___flmul@temp& (0+255),w,b
  2657  000718  6FC2               	movwf	___flmul@grs& (0+255),b
  2658  00071A  6BC3               	clrf	(___flmul@grs+1)& (0+255),b
  2659  00071C  6BC4               	clrf	(___flmul@grs+2)& (0+255),b
  2660  00071E  6BC5               	clrf	(___flmul@grs+3)& (0+255),b
  2661  000720                     
  2662                           ; BSR set to: 0
  2663  000720  51CD               	movf	(___flmul@temp+1)& (0+255),w,b
  2664  000722  6FC8               	movwf	___flmul@prod& (0+255),b
  2665  000724  6BC9               	clrf	(___flmul@prod+1)& (0+255),b
  2666  000726  6BCA               	clrf	(___flmul@prod+2)& (0+255),b
  2667  000728  6BCB               	clrf	(___flmul@prod+3)& (0+255),b
  2668  00072A  51BA               	movf	(___flmul@a+1)& (0+255),w,b
  2669  00072C  03B6               	mulwf	(___flmul@b+1)& (0+255),b
  2670  00072E  CFF3 F0CC          	movff	prodl,___flmul@temp
  2671  000732  CFF4 F0CD          	movff	prodh,___flmul@temp+1
  2672  000736                     
  2673                           ; BSR set to: 0
  2674  000736  51CC               	movf	___flmul@temp& (0+255),w,b
  2675  000738  27C2               	addwf	___flmul@grs& (0+255),f,b
  2676  00073A  0E00               	movlw	0
  2677  00073C  23C3               	addwfc	(___flmul@grs+1)& (0+255),f,b
  2678  00073E  23C4               	addwfc	(___flmul@grs+2)& (0+255),f,b
  2679  000740  23C5               	addwfc	(___flmul@grs+3)& (0+255),f,b
  2680  000742                     
  2681                           ; BSR set to: 0
  2682  000742  51CD               	movf	(___flmul@temp+1)& (0+255),w,b
  2683  000744  27C8               	addwf	___flmul@prod& (0+255),f,b
  2684  000746  0E00               	movlw	0
  2685  000748  23C9               	addwfc	(___flmul@prod+1)& (0+255),f,b
  2686  00074A  23CA               	addwfc	(___flmul@prod+2)& (0+255),f,b
  2687  00074C  23CB               	addwfc	(___flmul@prod+3)& (0+255),f,b
  2688  00074E  51B9               	movf	___flmul@a& (0+255),w,b
  2689  000750  03B7               	mulwf	(___flmul@b+2)& (0+255),b
  2690  000752  CFF3 F0CC          	movff	prodl,___flmul@temp
  2691  000756  CFF4 F0CD          	movff	prodh,___flmul@temp+1
  2692  00075A                     
  2693                           ; BSR set to: 0
  2694  00075A  51CC               	movf	___flmul@temp& (0+255),w,b
  2695  00075C  27C2               	addwf	___flmul@grs& (0+255),f,b
  2696  00075E  0E00               	movlw	0
  2697  000760  23C3               	addwfc	(___flmul@grs+1)& (0+255),f,b
  2698  000762  23C4               	addwfc	(___flmul@grs+2)& (0+255),f,b
  2699  000764  23C5               	addwfc	(___flmul@grs+3)& (0+255),f,b
  2700  000766                     
  2701                           ; BSR set to: 0
  2702  000766  51CD               	movf	(___flmul@temp+1)& (0+255),w,b
  2703  000768  27C8               	addwf	___flmul@prod& (0+255),f,b
  2704  00076A  0E00               	movlw	0
  2705  00076C  23C9               	addwfc	(___flmul@prod+1)& (0+255),f,b
  2706  00076E  23CA               	addwfc	(___flmul@prod+2)& (0+255),f,b
  2707  000770  23CB               	addwfc	(___flmul@prod+3)& (0+255),f,b
  2708  000772                     
  2709                           ; BSR set to: 0
  2710  000772  C0C4  F0C5         	movff	___flmul@grs+2,___flmul@grs+3
  2711  000776  C0C3  F0C4         	movff	___flmul@grs+1,___flmul@grs+2
  2712  00077A  C0C2  F0C3         	movff	___flmul@grs,___flmul@grs+1
  2713  00077E  6BC2               	clrf	___flmul@grs& (0+255),b
  2714  000780                     
  2715                           ; BSR set to: 0
  2716  000780  51B9               	movf	___flmul@a& (0+255),w,b
  2717  000782  03B6               	mulwf	(___flmul@b+1)& (0+255),b
  2718  000784  CFF3 F0CC          	movff	prodl,___flmul@temp
  2719  000788  CFF4 F0CD          	movff	prodh,___flmul@temp+1
  2720  00078C                     
  2721                           ; BSR set to: 0
  2722  00078C  51CC               	movf	___flmul@temp& (0+255),w,b
  2723  00078E  27C2               	addwf	___flmul@grs& (0+255),f,b
  2724  000790  51CD               	movf	(___flmul@temp+1)& (0+255),w,b
  2725  000792  23C3               	addwfc	(___flmul@grs+1)& (0+255),f,b
  2726  000794  0E00               	movlw	0
  2727  000796  23C4               	addwfc	(___flmul@grs+2)& (0+255),f,b
  2728  000798  0E00               	movlw	0
  2729  00079A  23C5               	addwfc	(___flmul@grs+3)& (0+255),f,b
  2730  00079C                     
  2731                           ; BSR set to: 0
  2732  00079C  51BA               	movf	(___flmul@a+1)& (0+255),w,b
  2733  00079E  03B5               	mulwf	___flmul@b& (0+255),b
  2734  0007A0  CFF3 F0CC          	movff	prodl,___flmul@temp
  2735  0007A4  CFF4 F0CD          	movff	prodh,___flmul@temp+1
  2736  0007A8                     
  2737                           ; BSR set to: 0
  2738  0007A8  51CC               	movf	___flmul@temp& (0+255),w,b
  2739  0007AA  27C2               	addwf	___flmul@grs& (0+255),f,b
  2740  0007AC  51CD               	movf	(___flmul@temp+1)& (0+255),w,b
  2741  0007AE  23C3               	addwfc	(___flmul@grs+1)& (0+255),f,b
  2742  0007B0  0E00               	movlw	0
  2743  0007B2  23C4               	addwfc	(___flmul@grs+2)& (0+255),f,b
  2744  0007B4  0E00               	movlw	0
  2745  0007B6  23C5               	addwfc	(___flmul@grs+3)& (0+255),f,b
  2746  0007B8                     
  2747                           ; BSR set to: 0
  2748  0007B8  C0C4  F0C5         	movff	___flmul@grs+2,___flmul@grs+3
  2749  0007BC  C0C3  F0C4         	movff	___flmul@grs+1,___flmul@grs+2
  2750  0007C0  C0C2  F0C3         	movff	___flmul@grs,___flmul@grs+1
  2751  0007C4  6BC2               	clrf	___flmul@grs& (0+255),b
  2752  0007C6  51B9               	movf	___flmul@a& (0+255),w,b
  2753  0007C8  03B5               	mulwf	___flmul@b& (0+255),b
  2754  0007CA  CFF3 F0CC          	movff	prodl,___flmul@temp
  2755  0007CE  CFF4 F0CD          	movff	prodh,___flmul@temp+1
  2756  0007D2                     
  2757                           ; BSR set to: 0
  2758  0007D2  51CC               	movf	___flmul@temp& (0+255),w,b
  2759  0007D4  27C2               	addwf	___flmul@grs& (0+255),f,b
  2760  0007D6  51CD               	movf	(___flmul@temp+1)& (0+255),w,b
  2761  0007D8  23C3               	addwfc	(___flmul@grs+1)& (0+255),f,b
  2762  0007DA  0E00               	movlw	0
  2763  0007DC  23C4               	addwfc	(___flmul@grs+2)& (0+255),f,b
  2764  0007DE  0E00               	movlw	0
  2765  0007E0  23C5               	addwfc	(___flmul@grs+3)& (0+255),f,b
  2766  0007E2                     
  2767                           ; BSR set to: 0
  2768  0007E2  51BB               	movf	(___flmul@a+2)& (0+255),w,b
  2769  0007E4  03B6               	mulwf	(___flmul@b+1)& (0+255),b
  2770  0007E6  CFF3 F0CC          	movff	prodl,___flmul@temp
  2771  0007EA  CFF4 F0CD          	movff	prodh,___flmul@temp+1
  2772  0007EE  51CC               	movf	___flmul@temp& (0+255),w,b
  2773  0007F0  27C8               	addwf	___flmul@prod& (0+255),f,b
  2774  0007F2  51CD               	movf	(___flmul@temp+1)& (0+255),w,b
  2775  0007F4  23C9               	addwfc	(___flmul@prod+1)& (0+255),f,b
  2776  0007F6  0E00               	movlw	0
  2777  0007F8  23CA               	addwfc	(___flmul@prod+2)& (0+255),f,b
  2778  0007FA  0E00               	movlw	0
  2779  0007FC  23CB               	addwfc	(___flmul@prod+3)& (0+255),f,b
  2780  0007FE                     
  2781                           ; BSR set to: 0
  2782  0007FE  51BA               	movf	(___flmul@a+1)& (0+255),w,b
  2783  000800  03B7               	mulwf	(___flmul@b+2)& (0+255),b
  2784  000802  CFF3 F0CC          	movff	prodl,___flmul@temp
  2785  000806  CFF4 F0CD          	movff	prodh,___flmul@temp+1
  2786  00080A                     
  2787                           ; BSR set to: 0
  2788  00080A  51CC               	movf	___flmul@temp& (0+255),w,b
  2789  00080C  27C8               	addwf	___flmul@prod& (0+255),f,b
  2790  00080E  51CD               	movf	(___flmul@temp+1)& (0+255),w,b
  2791  000810  23C9               	addwfc	(___flmul@prod+1)& (0+255),f,b
  2792  000812  0E00               	movlw	0
  2793  000814  23CA               	addwfc	(___flmul@prod+2)& (0+255),f,b
  2794  000816  0E00               	movlw	0
  2795  000818  23CB               	addwfc	(___flmul@prod+3)& (0+255),f,b
  2796  00081A  51BB               	movf	(___flmul@a+2)& (0+255),w,b
  2797  00081C  03B7               	mulwf	(___flmul@b+2)& (0+255),b
  2798  00081E  CFF3 F0CC          	movff	prodl,___flmul@temp
  2799  000822  CFF4 F0CD          	movff	prodh,___flmul@temp+1
  2800  000826                     
  2801                           ; BSR set to: 0
  2802  000826  51CC               	movf	___flmul@temp& (0+255),w,b
  2803  000828  6FBD               	movwf	??___flmul& (0+255),b
  2804  00082A  51CD               	movf	(___flmul@temp+1)& (0+255),w,b
  2805  00082C  6FBE               	movwf	(??___flmul+1)& (0+255),b
  2806  00082E  6BBF               	clrf	(??___flmul+2)& (0+255),b
  2807  000830  6BC0               	clrf	(??___flmul+3)& (0+255),b
  2808  000832  C0BF  F0C0         	movff	??___flmul+2,??___flmul+3
  2809  000836  C0BE  F0BF         	movff	??___flmul+1,??___flmul+2
  2810  00083A  C0BD  F0BE         	movff	??___flmul,??___flmul+1
  2811  00083E  6BBD               	clrf	??___flmul& (0+255),b
  2812  000840  51BD               	movf	??___flmul& (0+255),w,b
  2813  000842  27C8               	addwf	___flmul@prod& (0+255),f,b
  2814  000844  51BE               	movf	(??___flmul+1)& (0+255),w,b
  2815  000846  23C9               	addwfc	(___flmul@prod+1)& (0+255),f,b
  2816  000848  51BF               	movf	(??___flmul+2)& (0+255),w,b
  2817  00084A  23CA               	addwfc	(___flmul@prod+2)& (0+255),f,b
  2818  00084C  51C0               	movf	(??___flmul+3)& (0+255),w,b
  2819  00084E  23CB               	addwfc	(___flmul@prod+3)& (0+255),f,b
  2820  000850                     
  2821                           ; BSR set to: 0
  2822  000850  C0C2  F0BD         	movff	___flmul@grs,??___flmul
  2823  000854  C0C3  F0BE         	movff	___flmul@grs+1,??___flmul+1
  2824  000858  C0C4  F0BF         	movff	___flmul@grs+2,??___flmul+2
  2825  00085C  C0C5  F0C0         	movff	___flmul@grs+3,??___flmul+3
  2826  000860  0E19               	movlw	25
  2827  000862  EF38  F004         	goto	u1990
  2828  000866                     u1995:
  2829  000866  90D8               	bcf	status,0,c
  2830  000868  33C0               	rrcf	(??___flmul+3)& (0+255),f,b
  2831  00086A  33BF               	rrcf	(??___flmul+2)& (0+255),f,b
  2832  00086C  33BE               	rrcf	(??___flmul+1)& (0+255),f,b
  2833  00086E  33BD               	rrcf	??___flmul& (0+255),f,b
  2834  000870                     u1990:
  2835  000870  2EE8               	decfsz	wreg,f,c
  2836  000872  EF33  F004         	goto	u1995
  2837  000876  51BD               	movf	??___flmul& (0+255),w,b
  2838  000878  27C8               	addwf	___flmul@prod& (0+255),f,b
  2839  00087A  51BE               	movf	(??___flmul+1)& (0+255),w,b
  2840  00087C  23C9               	addwfc	(___flmul@prod+1)& (0+255),f,b
  2841  00087E  51BF               	movf	(??___flmul+2)& (0+255),w,b
  2842  000880  23CA               	addwfc	(___flmul@prod+2)& (0+255),f,b
  2843  000882  51C0               	movf	(??___flmul+3)& (0+255),w,b
  2844  000884  23CB               	addwfc	(___flmul@prod+3)& (0+255),f,b
  2845  000886                     
  2846                           ; BSR set to: 0
  2847  000886  C0C4  F0C5         	movff	___flmul@grs+2,___flmul@grs+3
  2848  00088A  C0C3  F0C4         	movff	___flmul@grs+1,___flmul@grs+2
  2849  00088E  C0C2  F0C3         	movff	___flmul@grs,___flmul@grs+1
  2850  000892  6BC2               	clrf	___flmul@grs& (0+255),b
  2851  000894                     
  2852                           ; BSR set to: 0
  2853  000894  51C6               	movf	___flmul@aexp& (0+255),w,b
  2854  000896  C0C7  F0BD         	movff	___flmul@bexp,??___flmul
  2855  00089A  6BBE               	clrf	(??___flmul+1)& (0+255),b
  2856  00089C  27BD               	addwf	??___flmul& (0+255),f,b
  2857  00089E  0E00               	movlw	0
  2858  0008A0  23BE               	addwfc	(??___flmul+1)& (0+255),f,b
  2859  0008A2  0E82               	movlw	130
  2860  0008A4  25BD               	addwf	??___flmul& (0+255),w,b
  2861  0008A6  6FCC               	movwf	___flmul@temp& (0+255),b
  2862  0008A8  0EFF               	movlw	255
  2863  0008AA  21BE               	addwfc	(??___flmul+1)& (0+255),w,b
  2864  0008AC  6FCD               	movwf	(___flmul@temp+1)& (0+255),b
  2865  0008AE  EF6E  F004         	goto	l2189
  2866  0008B2                     l2183:
  2867                           
  2868                           ; BSR set to: 0
  2869  0008B2  90D8               	bcf	status,0,c
  2870  0008B4  37C8               	rlcf	___flmul@prod& (0+255),f,b
  2871  0008B6  37C9               	rlcf	(___flmul@prod+1)& (0+255),f,b
  2872  0008B8  37CA               	rlcf	(___flmul@prod+2)& (0+255),f,b
  2873  0008BA  37CB               	rlcf	(___flmul@prod+3)& (0+255),f,b
  2874  0008BC                     
  2875                           ; BSR set to: 0
  2876  0008BC  AFC5               	btfss	(___flmul@grs+3)& (0+255),7,b
  2877  0008BE  EF63  F004         	goto	u2001
  2878  0008C2  EF65  F004         	goto	u2000
  2879  0008C6                     u2001:
  2880  0008C6  EF66  F004         	goto	l769
  2881  0008CA                     u2000:
  2882  0008CA                     
  2883                           ; BSR set to: 0
  2884  0008CA  81C8               	bsf	___flmul@prod& (0+255),0,b
  2885  0008CC                     l769:
  2886                           
  2887                           ; BSR set to: 0
  2888  0008CC  90D8               	bcf	status,0,c
  2889  0008CE  37C2               	rlcf	___flmul@grs& (0+255),f,b
  2890  0008D0  37C3               	rlcf	(___flmul@grs+1)& (0+255),f,b
  2891  0008D2  37C4               	rlcf	(___flmul@grs+2)& (0+255),f,b
  2892  0008D4  37C5               	rlcf	(___flmul@grs+3)& (0+255),f,b
  2893  0008D6  07CC               	decf	___flmul@temp& (0+255),f,b
  2894  0008D8  A0D8               	btfss	status,0,c
  2895  0008DA  07CD               	decf	(___flmul@temp+1)& (0+255),f,b
  2896  0008DC                     l2189:
  2897                           
  2898                           ; BSR set to: 0
  2899  0008DC  AFCA               	btfss	(___flmul@prod+2)& (0+255),7,b
  2900  0008DE  EF73  F004         	goto	u2011
  2901  0008E2  EF75  F004         	goto	u2010
  2902  0008E6                     u2011:
  2903  0008E6  EF59  F004         	goto	l2183
  2904  0008EA                     u2010:
  2905  0008EA                     
  2906                           ; BSR set to: 0
  2907  0008EA  0E00               	movlw	0
  2908  0008EC  6FC6               	movwf	___flmul@aexp& (0+255),b
  2909  0008EE                     
  2910                           ; BSR set to: 0
  2911  0008EE  AFC5               	btfss	(___flmul@grs+3)& (0+255),7,b
  2912  0008F0  EF7C  F004         	goto	u2021
  2913  0008F4  EF7E  F004         	goto	u2020
  2914  0008F8                     u2021:
  2915  0008F8  EFA2  F004         	goto	l771
  2916  0008FC                     u2020:
  2917  0008FC                     
  2918                           ; BSR set to: 0
  2919  0008FC  0EFF               	movlw	255
  2920  0008FE  15C2               	andwf	___flmul@grs& (0+255),w,b
  2921  000900  6FBD               	movwf	??___flmul& (0+255),b
  2922  000902  0EFF               	movlw	255
  2923  000904  15C3               	andwf	(___flmul@grs+1)& (0+255),w,b
  2924  000906  6FBE               	movwf	(??___flmul+1)& (0+255),b
  2925  000908  0EFF               	movlw	255
  2926  00090A  15C4               	andwf	(___flmul@grs+2)& (0+255),w,b
  2927  00090C  6FBF               	movwf	(??___flmul+2)& (0+255),b
  2928  00090E  0E7F               	movlw	127
  2929  000910  15C5               	andwf	(___flmul@grs+3)& (0+255),w,b
  2930  000912  6FC0               	movwf	(??___flmul+3)& (0+255),b
  2931  000914  51BD               	movf	??___flmul& (0+255),w,b
  2932  000916  11BE               	iorwf	(??___flmul+1)& (0+255),w,b
  2933  000918  11BF               	iorwf	(??___flmul+2)& (0+255),w,b
  2934  00091A  11C0               	iorwf	(??___flmul+3)& (0+255),w,b
  2935  00091C  B4D8               	btfsc	status,2,c
  2936  00091E  EF93  F004         	goto	u2031
  2937  000922  EF95  F004         	goto	u2030
  2938  000926                     u2031:
  2939  000926  EF99  F004         	goto	l772
  2940  00092A                     u2030:
  2941  00092A                     l2197:
  2942                           
  2943                           ; BSR set to: 0
  2944  00092A  0E01               	movlw	1
  2945  00092C  6FC6               	movwf	___flmul@aexp& (0+255),b
  2946  00092E  EFA2  F004         	goto	l771
  2947  000932                     l772:
  2948                           
  2949                           ; BSR set to: 0
  2950  000932  A1C8               	btfss	___flmul@prod& (0+255),0,b
  2951  000934  EF9E  F004         	goto	u2041
  2952  000938  EFA0  F004         	goto	u2040
  2953  00093C                     u2041:
  2954  00093C  EFA2  F004         	goto	l771
  2955  000940                     u2040:
  2956  000940  EF95  F004         	goto	l2197
  2957  000944                     l771:
  2958                           
  2959                           ; BSR set to: 0
  2960  000944  51C6               	movf	___flmul@aexp& (0+255),w,b
  2961  000946  B4D8               	btfsc	status,2,c
  2962  000948  EFA8  F004         	goto	u2051
  2963  00094C  EFAA  F004         	goto	u2050
  2964  000950                     u2051:
  2965  000950  EFCE  F004         	goto	l2209
  2966  000954                     u2050:
  2967  000954                     
  2968                           ; BSR set to: 0
  2969  000954  0E01               	movlw	1
  2970  000956  27C8               	addwf	___flmul@prod& (0+255),f,b
  2971  000958  0E00               	movlw	0
  2972  00095A  23C9               	addwfc	(___flmul@prod+1)& (0+255),f,b
  2973  00095C  23CA               	addwfc	(___flmul@prod+2)& (0+255),f,b
  2974  00095E  23CB               	addwfc	(___flmul@prod+3)& (0+255),f,b
  2975  000960                     
  2976                           ; BSR set to: 0
  2977  000960  A1CB               	btfss	(___flmul@prod+3)& (0+255),0,b
  2978  000962  EFB5  F004         	goto	u2061
  2979  000966  EFB7  F004         	goto	u2060
  2980  00096A                     u2061:
  2981  00096A  EFCE  F004         	goto	l2209
  2982  00096E                     u2060:
  2983  00096E                     
  2984                           ; BSR set to: 0
  2985  00096E  C0C8  F0BD         	movff	___flmul@prod,??___flmul
  2986  000972  C0C9  F0BE         	movff	___flmul@prod+1,??___flmul+1
  2987  000976  C0CA  F0BF         	movff	___flmul@prod+2,??___flmul+2
  2988  00097A  C0CB  F0C0         	movff	___flmul@prod+3,??___flmul+3
  2989  00097E  35C0               	rlcf	(??___flmul+3)& (0+255),w,b
  2990  000980  33C0               	rrcf	(??___flmul+3)& (0+255),f,b
  2991  000982  33BF               	rrcf	(??___flmul+2)& (0+255),f,b
  2992  000984  33BE               	rrcf	(??___flmul+1)& (0+255),f,b
  2993  000986  33BD               	rrcf	??___flmul& (0+255),f,b
  2994  000988  C0BD  F0C8         	movff	??___flmul,___flmul@prod
  2995  00098C  C0BE  F0C9         	movff	??___flmul+1,___flmul@prod+1
  2996  000990  C0BF  F0CA         	movff	??___flmul+2,___flmul@prod+2
  2997  000994  C0C0  F0CB         	movff	??___flmul+3,___flmul@prod+3
  2998  000998                     
  2999                           ; BSR set to: 0
  3000  000998  4BCC               	infsnz	___flmul@temp& (0+255),f,b
  3001  00099A  2BCD               	incf	(___flmul@temp+1)& (0+255),f,b
  3002  00099C                     l2209:
  3003                           
  3004                           ; BSR set to: 0
  3005  00099C  BFCD               	btfsc	(___flmul@temp+1)& (0+255),7,b
  3006  00099E  EFD9  F004         	goto	u2071
  3007  0009A2  51CD               	movf	(___flmul@temp+1)& (0+255),w,b
  3008  0009A4  E108               	bnz	u2070
  3009  0009A6  29CC               	incf	___flmul@temp& (0+255),w,b
  3010  0009A8  A0D8               	btfss	status,0,c
  3011  0009AA  EFD9  F004         	goto	u2071
  3012  0009AE  EFDB  F004         	goto	u2070
  3013  0009B2                     u2071:
  3014  0009B2  EFE5  F004         	goto	l2213
  3015  0009B6                     u2070:
  3016  0009B6                     
  3017                           ; BSR set to: 0
  3018  0009B6  0E00               	movlw	0
  3019  0009B8  6FC8               	movwf	___flmul@prod& (0+255),b
  3020  0009BA  0E00               	movlw	0
  3021  0009BC  6FC9               	movwf	(___flmul@prod+1)& (0+255),b
  3022  0009BE  0E80               	movlw	128
  3023  0009C0  6FCA               	movwf	(___flmul@prod+2)& (0+255),b
  3024  0009C2  0E7F               	movlw	127
  3025  0009C4  6FCB               	movwf	(___flmul@prod+3)& (0+255),b
  3026  0009C6  EF13  F005         	goto	l2225
  3027  0009CA                     l2213:
  3028                           
  3029                           ; BSR set to: 0
  3030  0009CA  BFCD               	btfsc	(___flmul@temp+1)& (0+255),7,b
  3031  0009CC  EFF2  F004         	goto	u2080
  3032  0009D0  51CD               	movf	(___flmul@temp+1)& (0+255),w,b
  3033  0009D2  E106               	bnz	u2081
  3034  0009D4  05CC               	decf	___flmul@temp& (0+255),w,b
  3035  0009D6  B0D8               	btfsc	status,0,c
  3036  0009D8  EFF0  F004         	goto	u2081
  3037  0009DC  EFF2  F004         	goto	u2080
  3038  0009E0                     u2081:
  3039  0009E0  EFFE  F004         	goto	l779
  3040  0009E4                     u2080:
  3041  0009E4                     
  3042                           ; BSR set to: 0
  3043  0009E4  0E00               	movlw	0
  3044  0009E6  6FC8               	movwf	___flmul@prod& (0+255),b
  3045  0009E8  0E00               	movlw	0
  3046  0009EA  6FC9               	movwf	(___flmul@prod+1)& (0+255),b
  3047  0009EC  0E00               	movlw	0
  3048  0009EE  6FCA               	movwf	(___flmul@prod+2)& (0+255),b
  3049  0009F0  0E00               	movlw	0
  3050  0009F2  6FCB               	movwf	(___flmul@prod+3)& (0+255),b
  3051  0009F4  0E00               	movlw	0
  3052  0009F6  6FC1               	movwf	___flmul@sign& (0+255),b
  3053  0009F8  EF13  F005         	goto	l2225
  3054  0009FC                     l779:
  3055                           
  3056                           ; BSR set to: 0
  3057  0009FC  C0CC  F0C7         	movff	___flmul@temp,___flmul@bexp
  3058  000A00                     
  3059                           ; BSR set to: 0
  3060  000A00  0EFF               	movlw	255
  3061  000A02  17C8               	andwf	___flmul@prod& (0+255),f,b
  3062  000A04  0EFF               	movlw	255
  3063  000A06  17C9               	andwf	(___flmul@prod+1)& (0+255),f,b
  3064  000A08  0E7F               	movlw	127
  3065  000A0A  17CA               	andwf	(___flmul@prod+2)& (0+255),f,b
  3066  000A0C  0E00               	movlw	0
  3067  000A0E  17CB               	andwf	(___flmul@prod+3)& (0+255),f,b
  3068  000A10                     
  3069                           ; BSR set to: 0
  3070  000A10  A1C7               	btfss	___flmul@bexp& (0+255),0,b
  3071  000A12  EF0D  F005         	goto	u2091
  3072  000A16  EF0F  F005         	goto	u2090
  3073  000A1A                     u2091:
  3074  000A1A  EF10  F005         	goto	l2223
  3075  000A1E                     u2090:
  3076  000A1E                     
  3077                           ; BSR set to: 0
  3078  000A1E  8FCA               	bsf	(___flmul@prod+2)& (0+255),7,b
  3079  000A20                     l2223:
  3080                           
  3081                           ; BSR set to: 0
  3082  000A20  90D8               	bcf	status,0,c
  3083  000A22  31C7               	rrcf	___flmul@bexp& (0+255),w,b
  3084  000A24  6FCB               	movwf	(___flmul@prod+3)& (0+255),b
  3085  000A26                     l2225:
  3086                           
  3087                           ; BSR set to: 0
  3088  000A26  51C1               	movf	___flmul@sign& (0+255),w,b
  3089  000A28  13CB               	iorwf	(___flmul@prod+3)& (0+255),f,b
  3090  000A2A                     
  3091                           ; BSR set to: 0
  3092  000A2A  C0C8  F0B5         	movff	___flmul@prod,?___flmul
  3093  000A2E  C0C9  F0B6         	movff	___flmul@prod+1,?___flmul+1
  3094  000A32  C0CA  F0B7         	movff	___flmul@prod+2,?___flmul+2
  3095  000A36  C0CB  F0B8         	movff	___flmul@prod+3,?___flmul+3
  3096  000A3A                     l766:
  3097                           
  3098                           ; BSR set to: 0
  3099  000A3A  0012               	return		;funcret
  3100  000A3C                     __end_of___flmul:
  3101                           	callstack 0
  3102                           
  3103 ;; *************** function ___fldiv *****************
  3104 ;; Defined at:
  3105 ;;		line 11 in file "C:\Program Files\Microchip\xc8\v2.32\pic\sources\c99\common\sprcdiv.c"
  3106 ;; Parameters:    Size  Location     Type
  3107 ;;  b               4   28[BANK0 ] unsigned char 
  3108 ;;  a               4   32[BANK0 ] unsigned char 
  3109 ;; Auto vars:     Size  Location     Type
  3110 ;;  grs             4   47[BANK0 ] unsigned long 
  3111 ;;  rem             4   40[BANK0 ] unsigned long 
  3112 ;;  new_exp         2   45[BANK0 ] short 
  3113 ;;  aexp            1   52[BANK0 ] unsigned char 
  3114 ;;  bexp            1   51[BANK0 ] unsigned char 
  3115 ;;  sign            1   44[BANK0 ] unsigned char 
  3116 ;; Return value:  Size  Location     Type
  3117 ;;                  4   28[BANK0 ] unsigned char 
  3118 ;; Registers used:
  3119 ;;		wreg, status,2, status,0
  3120 ;; Tracked objects:
  3121 ;;		On entry : 0/0
  3122 ;;		On exit  : 0/0
  3123 ;;		Unchanged: 0/0
  3124 ;; Data sizes:     COMRAM   BANK0   BANK1   BANK2   BANK3   BANK4   BANK5
  3125 ;;      Params:         0       8       0       0       0       0       0
  3126 ;;      Locals:         0      13       0       0       0       0       0
  3127 ;;      Temps:          0       4       0       0       0       0       0
  3128 ;;      Totals:         0      25       0       0       0       0       0
  3129 ;;Total ram usage:       25 bytes
  3130 ;; Hardware stack levels used: 1
  3131 ;; Hardware stack levels required when called: 3
  3132 ;; This function calls:
  3133 ;;		Nothing
  3134 ;; This function is called by:
  3135 ;;		_PWM1_Duty
  3136 ;; This function uses a non-reentrant model
  3137 ;;
  3138                           
  3139                           	psect	text16
  3140  000E66                     __ptext16:
  3141                           	callstack 0
  3142  000E66                     ___fldiv:
  3143                           	callstack 26
  3144  000E66  0100               	movlb	0	; () banked
  3145  000E68  519F               	movf	(___fldiv@b+3)& (0+255),w,b
  3146  000E6A  0B80               	andlw	128
  3147  000E6C  6FAC               	movwf	___fldiv@sign& (0+255),b
  3148  000E6E  519F               	movf	(___fldiv@b+3)& (0+255),w,b
  3149  000E70  259F               	addwf	(___fldiv@b+3)& (0+255),w,b
  3150  000E72  6FB3               	movwf	___fldiv@bexp& (0+255),b
  3151  000E74                     
  3152                           ; BSR set to: 0
  3153  000E74  AF9E               	btfss	(___fldiv@b+2)& (0+255),7,b
  3154  000E76  EF3F  F007         	goto	u1681
  3155  000E7A  EF41  F007         	goto	u1680
  3156  000E7E                     u1681:
  3157  000E7E  EF42  F007         	goto	l1969
  3158  000E82                     u1680:
  3159  000E82                     
  3160                           ; BSR set to: 0
  3161  000E82  81B3               	bsf	___fldiv@bexp& (0+255),0,b
  3162  000E84                     l1969:
  3163                           
  3164                           ; BSR set to: 0
  3165  000E84  51B3               	movf	___fldiv@bexp& (0+255),w,b
  3166  000E86  B4D8               	btfsc	status,2,c
  3167  000E88  EF48  F007         	goto	u1691
  3168  000E8C  EF4A  F007         	goto	u1690
  3169  000E90                     u1691:
  3170  000E90  EF5F  F007         	goto	l1979
  3171  000E94                     u1690:
  3172  000E94                     
  3173                           ; BSR set to: 0
  3174  000E94  29B3               	incf	___fldiv@bexp& (0+255),w,b
  3175  000E96  A4D8               	btfss	status,2,c
  3176  000E98  EF50  F007         	goto	u1701
  3177  000E9C  EF52  F007         	goto	u1700
  3178  000EA0                     u1701:
  3179  000EA0  EF5A  F007         	goto	l1975
  3180  000EA4                     u1700:
  3181  000EA4                     
  3182                           ; BSR set to: 0
  3183  000EA4  0E00               	movlw	0
  3184  000EA6  6F9C               	movwf	___fldiv@b& (0+255),b
  3185  000EA8  0E00               	movlw	0
  3186  000EAA  6F9D               	movwf	(___fldiv@b+1)& (0+255),b
  3187  000EAC  0E00               	movlw	0
  3188  000EAE  6F9E               	movwf	(___fldiv@b+2)& (0+255),b
  3189  000EB0  0E00               	movlw	0
  3190  000EB2  6F9F               	movwf	(___fldiv@b+3)& (0+255),b
  3191  000EB4                     l1975:
  3192                           
  3193                           ; BSR set to: 0
  3194  000EB4  8F9E               	bsf	(___fldiv@b+2)& (0+255),7,b
  3195  000EB6                     
  3196                           ; BSR set to: 0
  3197  000EB6  0E00               	movlw	0
  3198  000EB8  6F9F               	movwf	(___fldiv@b+3)& (0+255),b
  3199  000EBA  EF67  F007         	goto	l1981
  3200  000EBE                     l1979:
  3201                           
  3202                           ; BSR set to: 0
  3203  000EBE  0E00               	movlw	0
  3204  000EC0  6F9C               	movwf	___fldiv@b& (0+255),b
  3205  000EC2  0E00               	movlw	0
  3206  000EC4  6F9D               	movwf	(___fldiv@b+1)& (0+255),b
  3207  000EC6  0E00               	movlw	0
  3208  000EC8  6F9E               	movwf	(___fldiv@b+2)& (0+255),b
  3209  000ECA  0E00               	movlw	0
  3210  000ECC  6F9F               	movwf	(___fldiv@b+3)& (0+255),b
  3211  000ECE                     l1981:
  3212                           
  3213                           ; BSR set to: 0
  3214  000ECE  51A3               	movf	(___fldiv@a+3)& (0+255),w,b
  3215  000ED0  0B80               	andlw	128
  3216  000ED2  1BAC               	xorwf	___fldiv@sign& (0+255),f,b
  3217  000ED4                     
  3218                           ; BSR set to: 0
  3219  000ED4  51A3               	movf	(___fldiv@a+3)& (0+255),w,b
  3220  000ED6  25A3               	addwf	(___fldiv@a+3)& (0+255),w,b
  3221  000ED8  6FB4               	movwf	___fldiv@aexp& (0+255),b
  3222  000EDA                     
  3223                           ; BSR set to: 0
  3224  000EDA  AFA2               	btfss	(___fldiv@a+2)& (0+255),7,b
  3225  000EDC  EF72  F007         	goto	u1711
  3226  000EE0  EF74  F007         	goto	u1710
  3227  000EE4                     u1711:
  3228  000EE4  EF75  F007         	goto	l1989
  3229  000EE8                     u1710:
  3230  000EE8                     
  3231                           ; BSR set to: 0
  3232  000EE8  81B4               	bsf	___fldiv@aexp& (0+255),0,b
  3233  000EEA                     l1989:
  3234                           
  3235                           ; BSR set to: 0
  3236  000EEA  51B4               	movf	___fldiv@aexp& (0+255),w,b
  3237  000EEC  B4D8               	btfsc	status,2,c
  3238  000EEE  EF7B  F007         	goto	u1721
  3239  000EF2  EF7D  F007         	goto	u1720
  3240  000EF6                     u1721:
  3241  000EF6  EF92  F007         	goto	l1999
  3242  000EFA                     u1720:
  3243  000EFA                     
  3244                           ; BSR set to: 0
  3245  000EFA  29B4               	incf	___fldiv@aexp& (0+255),w,b
  3246  000EFC  A4D8               	btfss	status,2,c
  3247  000EFE  EF83  F007         	goto	u1731
  3248  000F02  EF85  F007         	goto	u1730
  3249  000F06                     u1731:
  3250  000F06  EF8D  F007         	goto	l1995
  3251  000F0A                     u1730:
  3252  000F0A                     
  3253                           ; BSR set to: 0
  3254  000F0A  0E00               	movlw	0
  3255  000F0C  6FA0               	movwf	___fldiv@a& (0+255),b
  3256  000F0E  0E00               	movlw	0
  3257  000F10  6FA1               	movwf	(___fldiv@a+1)& (0+255),b
  3258  000F12  0E00               	movlw	0
  3259  000F14  6FA2               	movwf	(___fldiv@a+2)& (0+255),b
  3260  000F16  0E00               	movlw	0
  3261  000F18  6FA3               	movwf	(___fldiv@a+3)& (0+255),b
  3262  000F1A                     l1995:
  3263                           
  3264                           ; BSR set to: 0
  3265  000F1A  8FA2               	bsf	(___fldiv@a+2)& (0+255),7,b
  3266  000F1C                     
  3267                           ; BSR set to: 0
  3268  000F1C  0E00               	movlw	0
  3269  000F1E  6FA3               	movwf	(___fldiv@a+3)& (0+255),b
  3270  000F20  EF9A  F007         	goto	l2001
  3271  000F24                     l1999:
  3272                           
  3273                           ; BSR set to: 0
  3274  000F24  0E00               	movlw	0
  3275  000F26  6FA0               	movwf	___fldiv@a& (0+255),b
  3276  000F28  0E00               	movlw	0
  3277  000F2A  6FA1               	movwf	(___fldiv@a+1)& (0+255),b
  3278  000F2C  0E00               	movlw	0
  3279  000F2E  6FA2               	movwf	(___fldiv@a+2)& (0+255),b
  3280  000F30  0E00               	movlw	0
  3281  000F32  6FA3               	movwf	(___fldiv@a+3)& (0+255),b
  3282  000F34                     l2001:
  3283                           
  3284                           ; BSR set to: 0
  3285  000F34  51A0               	movf	___fldiv@a& (0+255),w,b
  3286  000F36  11A1               	iorwf	(___fldiv@a+1)& (0+255),w,b
  3287  000F38  11A2               	iorwf	(___fldiv@a+2)& (0+255),w,b
  3288  000F3A  11A3               	iorwf	(___fldiv@a+3)& (0+255),w,b
  3289  000F3C  A4D8               	btfss	status,2,c
  3290  000F3E  EFA3  F007         	goto	u1741
  3291  000F42  EFA5  F007         	goto	u1740
  3292  000F46                     u1741:
  3293  000F46  EFBD  F007         	goto	l2013
  3294  000F4A                     u1740:
  3295  000F4A                     
  3296                           ; BSR set to: 0
  3297  000F4A  0E00               	movlw	0
  3298  000F4C  6F9C               	movwf	___fldiv@b& (0+255),b
  3299  000F4E  0E00               	movlw	0
  3300  000F50  6F9D               	movwf	(___fldiv@b+1)& (0+255),b
  3301  000F52  0E00               	movlw	0
  3302  000F54  6F9E               	movwf	(___fldiv@b+2)& (0+255),b
  3303  000F56  0E00               	movlw	0
  3304  000F58  6F9F               	movwf	(___fldiv@b+3)& (0+255),b
  3305  000F5A                     
  3306                           ; BSR set to: 0
  3307  000F5A  0E80               	movlw	128
  3308  000F5C  139E               	iorwf	(___fldiv@b+2)& (0+255),f,b
  3309  000F5E  0E7F               	movlw	127
  3310  000F60  139F               	iorwf	(___fldiv@b+3)& (0+255),f,b
  3311  000F62                     l2007:
  3312                           
  3313                           ; BSR set to: 0
  3314  000F62  51AC               	movf	___fldiv@sign& (0+255),w,b
  3315  000F64  139F               	iorwf	(___fldiv@b+3)& (0+255),f,b
  3316  000F66                     
  3317                           ; BSR set to: 0
  3318  000F66  C09C  F09C         	movff	___fldiv@b,?___fldiv
  3319  000F6A  C09D  F09D         	movff	___fldiv@b+1,?___fldiv+1
  3320  000F6E  C09E  F09E         	movff	___fldiv@b+2,?___fldiv+2
  3321  000F72  C09F  F09F         	movff	___fldiv@b+3,?___fldiv+3
  3322  000F76  EF00  F009         	goto	l730
  3323  000F7A                     l2013:
  3324                           
  3325                           ; BSR set to: 0
  3326  000F7A  51B3               	movf	___fldiv@bexp& (0+255),w,b
  3327  000F7C  A4D8               	btfss	status,2,c
  3328  000F7E  EFC3  F007         	goto	u1751
  3329  000F82  EFC5  F007         	goto	u1750
  3330  000F86                     u1751:
  3331  000F86  EFCF  F007         	goto	l2021
  3332  000F8A                     u1750:
  3333  000F8A                     
  3334                           ; BSR set to: 0
  3335  000F8A  0E00               	movlw	0
  3336  000F8C  6F9C               	movwf	?___fldiv& (0+255),b
  3337  000F8E  0E00               	movlw	0
  3338  000F90  6F9D               	movwf	(?___fldiv+1)& (0+255),b
  3339  000F92  0E00               	movlw	0
  3340  000F94  6F9E               	movwf	(?___fldiv+2)& (0+255),b
  3341  000F96  0E00               	movlw	0
  3342  000F98  6F9F               	movwf	(?___fldiv+3)& (0+255),b
  3343  000F9A  EF00  F009         	goto	l730
  3344  000F9E                     l2021:
  3345                           
  3346                           ; BSR set to: 0
  3347  000F9E  51B4               	movf	___fldiv@aexp& (0+255),w,b
  3348  000FA0  C0B3  F0A4         	movff	___fldiv@bexp,??___fldiv
  3349  000FA4  6BA5               	clrf	(??___fldiv+1)& (0+255),b
  3350  000FA6  5FA4               	subwf	??___fldiv& (0+255),f,b
  3351  000FA8  0E00               	movlw	0
  3352  000FAA  5BA5               	subwfb	(??___fldiv+1)& (0+255),f,b
  3353  000FAC  0E7F               	movlw	127
  3354  000FAE  25A4               	addwf	??___fldiv& (0+255),w,b
  3355  000FB0  6FAD               	movwf	___fldiv@new_exp& (0+255),b
  3356  000FB2  0E00               	movlw	0
  3357  000FB4  21A5               	addwfc	(??___fldiv+1)& (0+255),w,b
  3358  000FB6  6FAE               	movwf	(___fldiv@new_exp+1)& (0+255),b
  3359  000FB8                     
  3360                           ; BSR set to: 0
  3361  000FB8  C09C  F0A8         	movff	___fldiv@b,___fldiv@rem
  3362  000FBC  C09D  F0A9         	movff	___fldiv@b+1,___fldiv@rem+1
  3363  000FC0  C09E  F0AA         	movff	___fldiv@b+2,___fldiv@rem+2
  3364  000FC4  C09F  F0AB         	movff	___fldiv@b+3,___fldiv@rem+3
  3365  000FC8                     
  3366                           ; BSR set to: 0
  3367  000FC8  0E00               	movlw	0
  3368  000FCA  6F9C               	movwf	___fldiv@b& (0+255),b
  3369  000FCC  0E00               	movlw	0
  3370  000FCE  6F9D               	movwf	(___fldiv@b+1)& (0+255),b
  3371  000FD0  0E00               	movlw	0
  3372  000FD2  6F9E               	movwf	(___fldiv@b+2)& (0+255),b
  3373  000FD4  0E00               	movlw	0
  3374  000FD6  6F9F               	movwf	(___fldiv@b+3)& (0+255),b
  3375  000FD8                     
  3376                           ; BSR set to: 0
  3377  000FD8  0E00               	movlw	0
  3378  000FDA  6FAF               	movwf	___fldiv@grs& (0+255),b
  3379  000FDC  0E00               	movlw	0
  3380  000FDE  6FB0               	movwf	(___fldiv@grs+1)& (0+255),b
  3381  000FE0  0E00               	movlw	0
  3382  000FE2  6FB1               	movwf	(___fldiv@grs+2)& (0+255),b
  3383  000FE4  0E00               	movlw	0
  3384  000FE6  6FB2               	movwf	(___fldiv@grs+3)& (0+255),b
  3385  000FE8                     
  3386                           ; BSR set to: 0
  3387  000FE8  0E00               	movlw	0
  3388  000FEA  6FB4               	movwf	___fldiv@aexp& (0+255),b
  3389  000FEC  EF30  F008         	goto	l732
  3390  000FF0                     l2031:
  3391                           
  3392                           ; BSR set to: 0
  3393  000FF0  51B4               	movf	___fldiv@aexp& (0+255),w,b
  3394  000FF2  B4D8               	btfsc	status,2,c
  3395  000FF4  EFFE  F007         	goto	u1761
  3396  000FF8  EF00  F008         	goto	u1760
  3397  000FFC                     u1761:
  3398  000FFC  EF17  F008         	goto	l2039
  3399  001000                     u1760:
  3400  001000                     
  3401                           ; BSR set to: 0
  3402  001000  90D8               	bcf	status,0,c
  3403  001002  37A8               	rlcf	___fldiv@rem& (0+255),f,b
  3404  001004  37A9               	rlcf	(___fldiv@rem+1)& (0+255),f,b
  3405  001006  37AA               	rlcf	(___fldiv@rem+2)& (0+255),f,b
  3406  001008  37AB               	rlcf	(___fldiv@rem+3)& (0+255),f,b
  3407  00100A  90D8               	bcf	status,0,c
  3408  00100C  379C               	rlcf	___fldiv@b& (0+255),f,b
  3409  00100E  379D               	rlcf	(___fldiv@b+1)& (0+255),f,b
  3410  001010  379E               	rlcf	(___fldiv@b+2)& (0+255),f,b
  3411  001012  379F               	rlcf	(___fldiv@b+3)& (0+255),f,b
  3412  001014                     
  3413                           ; BSR set to: 0
  3414  001014  AFB2               	btfss	(___fldiv@grs+3)& (0+255),7,b
  3415  001016  EF0F  F008         	goto	u1771
  3416  00101A  EF11  F008         	goto	u1770
  3417  00101E                     u1771:
  3418  00101E  EF12  F008         	goto	l735
  3419  001022                     u1770:
  3420  001022                     
  3421                           ; BSR set to: 0
  3422  001022  819C               	bsf	___fldiv@b& (0+255),0,b
  3423  001024                     l735:
  3424                           
  3425                           ; BSR set to: 0
  3426  001024  90D8               	bcf	status,0,c
  3427  001026  37AF               	rlcf	___fldiv@grs& (0+255),f,b
  3428  001028  37B0               	rlcf	(___fldiv@grs+1)& (0+255),f,b
  3429  00102A  37B1               	rlcf	(___fldiv@grs+2)& (0+255),f,b
  3430  00102C  37B2               	rlcf	(___fldiv@grs+3)& (0+255),f,b
  3431  00102E                     l2039:
  3432                           
  3433                           ; BSR set to: 0
  3434  00102E  51A0               	movf	___fldiv@a& (0+255),w,b
  3435  001030  5DA8               	subwf	___fldiv@rem& (0+255),w,b
  3436  001032  51A1               	movf	(___fldiv@a+1)& (0+255),w,b
  3437  001034  59A9               	subwfb	(___fldiv@rem+1)& (0+255),w,b
  3438  001036  51A2               	movf	(___fldiv@a+2)& (0+255),w,b
  3439  001038  59AA               	subwfb	(___fldiv@rem+2)& (0+255),w,b
  3440  00103A  51A3               	movf	(___fldiv@a+3)& (0+255),w,b
  3441  00103C  59AB               	subwfb	(___fldiv@rem+3)& (0+255),w,b
  3442  00103E  A0D8               	btfss	status,0,c
  3443  001040  EF24  F008         	goto	u1781
  3444  001044  EF26  F008         	goto	u1780
  3445  001048                     u1781:
  3446  001048  EF2F  F008         	goto	l2045
  3447  00104C                     u1780:
  3448  00104C                     
  3449                           ; BSR set to: 0
  3450  00104C  8DB2               	bsf	(___fldiv@grs+3)& (0+255),6,b
  3451  00104E                     
  3452                           ; BSR set to: 0
  3453  00104E  51A0               	movf	___fldiv@a& (0+255),w,b
  3454  001050  5FA8               	subwf	___fldiv@rem& (0+255),f,b
  3455  001052  51A1               	movf	(___fldiv@a+1)& (0+255),w,b
  3456  001054  5BA9               	subwfb	(___fldiv@rem+1)& (0+255),f,b
  3457  001056  51A2               	movf	(___fldiv@a+2)& (0+255),w,b
  3458  001058  5BAA               	subwfb	(___fldiv@rem+2)& (0+255),f,b
  3459  00105A  51A3               	movf	(___fldiv@a+3)& (0+255),w,b
  3460  00105C  5BAB               	subwfb	(___fldiv@rem+3)& (0+255),f,b
  3461  00105E                     l2045:
  3462                           
  3463                           ; BSR set to: 0
  3464  00105E  2BB4               	incf	___fldiv@aexp& (0+255),f,b
  3465  001060                     l732:
  3466                           
  3467                           ; BSR set to: 0
  3468  001060  0E19               	movlw	25
  3469  001062  65B4               	cpfsgt	___fldiv@aexp& (0+255),b
  3470  001064  EF36  F008         	goto	u1791
  3471  001068  EF38  F008         	goto	u1790
  3472  00106C                     u1791:
  3473  00106C  EFF8  F007         	goto	l2031
  3474  001070                     u1790:
  3475  001070                     
  3476                           ; BSR set to: 0
  3477  001070  51A8               	movf	___fldiv@rem& (0+255),w,b
  3478  001072  11A9               	iorwf	(___fldiv@rem+1)& (0+255),w,b
  3479  001074  11AA               	iorwf	(___fldiv@rem+2)& (0+255),w,b
  3480  001076  11AB               	iorwf	(___fldiv@rem+3)& (0+255),w,b
  3481  001078  B4D8               	btfsc	status,2,c
  3482  00107A  EF41  F008         	goto	u1801
  3483  00107E  EF43  F008         	goto	u1800
  3484  001082                     u1801:
  3485  001082  EF5B  F008         	goto	l2057
  3486  001086                     u1800:
  3487  001086                     
  3488                           ; BSR set to: 0
  3489  001086  81AF               	bsf	___fldiv@grs& (0+255),0,b
  3490  001088  EF5B  F008         	goto	l2057
  3491  00108C                     l2051:
  3492                           
  3493                           ; BSR set to: 0
  3494  00108C  90D8               	bcf	status,0,c
  3495  00108E  379C               	rlcf	___fldiv@b& (0+255),f,b
  3496  001090  379D               	rlcf	(___fldiv@b+1)& (0+255),f,b
  3497  001092  379E               	rlcf	(___fldiv@b+2)& (0+255),f,b
  3498  001094  379F               	rlcf	(___fldiv@b+3)& (0+255),f,b
  3499  001096                     
  3500                           ; BSR set to: 0
  3501  001096  AFB2               	btfss	(___fldiv@grs+3)& (0+255),7,b
  3502  001098  EF50  F008         	goto	u1811
  3503  00109C  EF52  F008         	goto	u1810
  3504  0010A0                     u1811:
  3505  0010A0  EF53  F008         	goto	l741
  3506  0010A4                     u1810:
  3507  0010A4                     
  3508                           ; BSR set to: 0
  3509  0010A4  819C               	bsf	___fldiv@b& (0+255),0,b
  3510  0010A6                     l741:
  3511                           
  3512                           ; BSR set to: 0
  3513  0010A6  90D8               	bcf	status,0,c
  3514  0010A8  37AF               	rlcf	___fldiv@grs& (0+255),f,b
  3515  0010AA  37B0               	rlcf	(___fldiv@grs+1)& (0+255),f,b
  3516  0010AC  37B1               	rlcf	(___fldiv@grs+2)& (0+255),f,b
  3517  0010AE  37B2               	rlcf	(___fldiv@grs+3)& (0+255),f,b
  3518  0010B0  07AD               	decf	___fldiv@new_exp& (0+255),f,b
  3519  0010B2  A0D8               	btfss	status,0,c
  3520  0010B4  07AE               	decf	(___fldiv@new_exp+1)& (0+255),f,b
  3521  0010B6                     l2057:
  3522                           
  3523                           ; BSR set to: 0
  3524  0010B6  AF9E               	btfss	(___fldiv@b+2)& (0+255),7,b
  3525  0010B8  EF60  F008         	goto	u1821
  3526  0010BC  EF62  F008         	goto	u1820
  3527  0010C0                     u1821:
  3528  0010C0  EF46  F008         	goto	l2051
  3529  0010C4                     u1820:
  3530  0010C4                     
  3531                           ; BSR set to: 0
  3532  0010C4  0E00               	movlw	0
  3533  0010C6  6FB4               	movwf	___fldiv@aexp& (0+255),b
  3534  0010C8                     
  3535                           ; BSR set to: 0
  3536  0010C8  AFB2               	btfss	(___fldiv@grs+3)& (0+255),7,b
  3537  0010CA  EF69  F008         	goto	u1831
  3538  0010CE  EF6B  F008         	goto	u1830
  3539  0010D2                     u1831:
  3540  0010D2  EF8F  F008         	goto	l743
  3541  0010D6                     u1830:
  3542  0010D6                     
  3543                           ; BSR set to: 0
  3544  0010D6  0EFF               	movlw	255
  3545  0010D8  15AF               	andwf	___fldiv@grs& (0+255),w,b
  3546  0010DA  6FA4               	movwf	??___fldiv& (0+255),b
  3547  0010DC  0EFF               	movlw	255
  3548  0010DE  15B0               	andwf	(___fldiv@grs+1)& (0+255),w,b
  3549  0010E0  6FA5               	movwf	(??___fldiv+1)& (0+255),b
  3550  0010E2  0EFF               	movlw	255
  3551  0010E4  15B1               	andwf	(___fldiv@grs+2)& (0+255),w,b
  3552  0010E6  6FA6               	movwf	(??___fldiv+2)& (0+255),b
  3553  0010E8  0E7F               	movlw	127
  3554  0010EA  15B2               	andwf	(___fldiv@grs+3)& (0+255),w,b
  3555  0010EC  6FA7               	movwf	(??___fldiv+3)& (0+255),b
  3556  0010EE  51A4               	movf	??___fldiv& (0+255),w,b
  3557  0010F0  11A5               	iorwf	(??___fldiv+1)& (0+255),w,b
  3558  0010F2  11A6               	iorwf	(??___fldiv+2)& (0+255),w,b
  3559  0010F4  11A7               	iorwf	(??___fldiv+3)& (0+255),w,b
  3560  0010F6  B4D8               	btfsc	status,2,c
  3561  0010F8  EF80  F008         	goto	u1841
  3562  0010FC  EF82  F008         	goto	u1840
  3563  001100                     u1841:
  3564  001100  EF86  F008         	goto	l744
  3565  001104                     u1840:
  3566  001104                     l2065:
  3567                           
  3568                           ; BSR set to: 0
  3569  001104  0E01               	movlw	1
  3570  001106  6FB4               	movwf	___fldiv@aexp& (0+255),b
  3571  001108  EF8F  F008         	goto	l743
  3572  00110C                     l744:
  3573                           
  3574                           ; BSR set to: 0
  3575  00110C  A19C               	btfss	___fldiv@b& (0+255),0,b
  3576  00110E  EF8B  F008         	goto	u1851
  3577  001112  EF8D  F008         	goto	u1850
  3578  001116                     u1851:
  3579  001116  EF8F  F008         	goto	l743
  3580  00111A                     u1850:
  3581  00111A  EF82  F008         	goto	l2065
  3582  00111E                     l743:
  3583                           
  3584                           ; BSR set to: 0
  3585  00111E  51B4               	movf	___fldiv@aexp& (0+255),w,b
  3586  001120  B4D8               	btfsc	status,2,c
  3587  001122  EF95  F008         	goto	u1861
  3588  001126  EF97  F008         	goto	u1860
  3589  00112A                     u1861:
  3590  00112A  EFBB  F008         	goto	l2077
  3591  00112E                     u1860:
  3592  00112E                     
  3593                           ; BSR set to: 0
  3594  00112E  0E01               	movlw	1
  3595  001130  279C               	addwf	___fldiv@b& (0+255),f,b
  3596  001132  0E00               	movlw	0
  3597  001134  239D               	addwfc	(___fldiv@b+1)& (0+255),f,b
  3598  001136  239E               	addwfc	(___fldiv@b+2)& (0+255),f,b
  3599  001138  239F               	addwfc	(___fldiv@b+3)& (0+255),f,b
  3600  00113A                     
  3601                           ; BSR set to: 0
  3602  00113A  A19F               	btfss	(___fldiv@b+3)& (0+255),0,b
  3603  00113C  EFA2  F008         	goto	u1871
  3604  001140  EFA4  F008         	goto	u1870
  3605  001144                     u1871:
  3606  001144  EFBB  F008         	goto	l2077
  3607  001148                     u1870:
  3608  001148                     
  3609                           ; BSR set to: 0
  3610  001148  C09C  F0A4         	movff	___fldiv@b,??___fldiv
  3611  00114C  C09D  F0A5         	movff	___fldiv@b+1,??___fldiv+1
  3612  001150  C09E  F0A6         	movff	___fldiv@b+2,??___fldiv+2
  3613  001154  C09F  F0A7         	movff	___fldiv@b+3,??___fldiv+3
  3614  001158  35A7               	rlcf	(??___fldiv+3)& (0+255),w,b
  3615  00115A  33A7               	rrcf	(??___fldiv+3)& (0+255),f,b
  3616  00115C  33A6               	rrcf	(??___fldiv+2)& (0+255),f,b
  3617  00115E  33A5               	rrcf	(??___fldiv+1)& (0+255),f,b
  3618  001160  33A4               	rrcf	??___fldiv& (0+255),f,b
  3619  001162  C0A4  F09C         	movff	??___fldiv,___fldiv@b
  3620  001166  C0A5  F09D         	movff	??___fldiv+1,___fldiv@b+1
  3621  00116A  C0A6  F09E         	movff	??___fldiv+2,___fldiv@b+2
  3622  00116E  C0A7  F09F         	movff	??___fldiv+3,___fldiv@b+3
  3623  001172                     
  3624                           ; BSR set to: 0
  3625  001172  4BAD               	infsnz	___fldiv@new_exp& (0+255),f,b
  3626  001174  2BAE               	incf	(___fldiv@new_exp+1)& (0+255),f,b
  3627  001176                     l2077:
  3628                           
  3629                           ; BSR set to: 0
  3630  001176  BFAE               	btfsc	(___fldiv@new_exp+1)& (0+255),7,b
  3631  001178  EFC6  F008         	goto	u1881
  3632  00117C  51AE               	movf	(___fldiv@new_exp+1)& (0+255),w,b
  3633  00117E  E108               	bnz	u1880
  3634  001180  29AD               	incf	___fldiv@new_exp& (0+255),w,b
  3635  001182  A0D8               	btfss	status,0,c
  3636  001184  EFC6  F008         	goto	u1881
  3637  001188  EFC8  F008         	goto	u1880
  3638  00118C                     u1881:
  3639  00118C  EFD3  F008         	goto	l2081
  3640  001190                     u1880:
  3641  001190                     
  3642                           ; BSR set to: 0
  3643  001190  0E00               	movlw	0
  3644  001192  6FAE               	movwf	(___fldiv@new_exp+1)& (0+255),b
  3645  001194  69AD               	setf	___fldiv@new_exp& (0+255),b
  3646  001196  0E00               	movlw	0
  3647  001198  6F9C               	movwf	___fldiv@b& (0+255),b
  3648  00119A  0E00               	movlw	0
  3649  00119C  6F9D               	movwf	(___fldiv@b+1)& (0+255),b
  3650  00119E  0E00               	movlw	0
  3651  0011A0  6F9E               	movwf	(___fldiv@b+2)& (0+255),b
  3652  0011A2  0E00               	movlw	0
  3653  0011A4  6F9F               	movwf	(___fldiv@b+3)& (0+255),b
  3654  0011A6                     l2081:
  3655                           
  3656                           ; BSR set to: 0
  3657  0011A6  BFAE               	btfsc	(___fldiv@new_exp+1)& (0+255),7,b
  3658  0011A8  EFE0  F008         	goto	u1890
  3659  0011AC  51AE               	movf	(___fldiv@new_exp+1)& (0+255),w,b
  3660  0011AE  E106               	bnz	u1891
  3661  0011B0  05AD               	decf	___fldiv@new_exp& (0+255),w,b
  3662  0011B2  B0D8               	btfsc	status,0,c
  3663  0011B4  EFDE  F008         	goto	u1891
  3664  0011B8  EFE0  F008         	goto	u1890
  3665  0011BC                     u1891:
  3666  0011BC  EFEE  F008         	goto	l2085
  3667  0011C0                     u1890:
  3668  0011C0                     
  3669                           ; BSR set to: 0
  3670  0011C0  0E00               	movlw	0
  3671  0011C2  6FAE               	movwf	(___fldiv@new_exp+1)& (0+255),b
  3672  0011C4  0E00               	movlw	0
  3673  0011C6  6FAD               	movwf	___fldiv@new_exp& (0+255),b
  3674  0011C8  0E00               	movlw	0
  3675  0011CA  6F9C               	movwf	___fldiv@b& (0+255),b
  3676  0011CC  0E00               	movlw	0
  3677  0011CE  6F9D               	movwf	(___fldiv@b+1)& (0+255),b
  3678  0011D0  0E00               	movlw	0
  3679  0011D2  6F9E               	movwf	(___fldiv@b+2)& (0+255),b
  3680  0011D4  0E00               	movlw	0
  3681  0011D6  6F9F               	movwf	(___fldiv@b+3)& (0+255),b
  3682  0011D8  0E00               	movlw	0
  3683  0011DA  6FAC               	movwf	___fldiv@sign& (0+255),b
  3684  0011DC                     l2085:
  3685                           
  3686                           ; BSR set to: 0
  3687  0011DC  C0AD  F0B3         	movff	___fldiv@new_exp,___fldiv@bexp
  3688  0011E0                     
  3689                           ; BSR set to: 0
  3690  0011E0  A1B3               	btfss	___fldiv@bexp& (0+255),0,b
  3691  0011E2  EFF5  F008         	goto	u1901
  3692  0011E6  EFF7  F008         	goto	u1900
  3693  0011EA                     u1901:
  3694  0011EA  EFFA  F008         	goto	l2091
  3695  0011EE                     u1900:
  3696  0011EE                     
  3697                           ; BSR set to: 0
  3698  0011EE  8F9E               	bsf	(___fldiv@b+2)& (0+255),7,b
  3699  0011F0  EFFB  F008         	goto	l2093
  3700  0011F4                     l2091:
  3701                           
  3702                           ; BSR set to: 0
  3703  0011F4  9F9E               	bcf	(___fldiv@b+2)& (0+255),7,b
  3704  0011F6                     l2093:
  3705                           
  3706                           ; BSR set to: 0
  3707  0011F6  90D8               	bcf	status,0,c
  3708  0011F8  31B3               	rrcf	___fldiv@bexp& (0+255),w,b
  3709  0011FA  6F9F               	movwf	(___fldiv@b+3)& (0+255),b
  3710  0011FC  EFB1  F007         	goto	l2007
  3711  001200                     l730:
  3712                           
  3713                           ; BSR set to: 0
  3714  001200  0012               	return		;funcret
  3715  001202                     __end_of___fldiv:
  3716                           	callstack 0
  3717                           
  3718 ;; *************** function ___aldiv *****************
  3719 ;; Defined at:
  3720 ;;		line 7 in file "C:\Program Files\Microchip\xc8\v2.32\pic\sources\c99\common\aldiv.c"
  3721 ;; Parameters:    Size  Location     Type
  3722 ;;  dividend        4    0[BANK0 ] long 
  3723 ;;  divisor         4    4[BANK0 ] long 
  3724 ;; Auto vars:     Size  Location     Type
  3725 ;;  quotient        4   10[BANK0 ] long 
  3726 ;;  sign            1    9[BANK0 ] unsigned char 
  3727 ;;  counter         1    8[BANK0 ] unsigned char 
  3728 ;; Return value:  Size  Location     Type
  3729 ;;                  4    0[BANK0 ] long 
  3730 ;; Registers used:
  3731 ;;		wreg, status,2, status,0
  3732 ;; Tracked objects:
  3733 ;;		On entry : 0/0
  3734 ;;		On exit  : 0/0
  3735 ;;		Unchanged: 0/0
  3736 ;; Data sizes:     COMRAM   BANK0   BANK1   BANK2   BANK3   BANK4   BANK5
  3737 ;;      Params:         0       8       0       0       0       0       0
  3738 ;;      Locals:         0       6       0       0       0       0       0
  3739 ;;      Temps:          0       0       0       0       0       0       0
  3740 ;;      Totals:         0      14       0       0       0       0       0
  3741 ;;Total ram usage:       14 bytes
  3742 ;; Hardware stack levels used: 1
  3743 ;; Hardware stack levels required when called: 3
  3744 ;; This function calls:
  3745 ;;		Nothing
  3746 ;; This function is called by:
  3747 ;;		_PWM1_Init
  3748 ;;		_PWM1_Duty
  3749 ;; This function uses a non-reentrant model
  3750 ;;
  3751                           
  3752                           	psect	text17
  3753  001C6A                     __ptext17:
  3754                           	callstack 0
  3755  001C6A                     ___aldiv:
  3756                           	callstack 26
  3757  001C6A  0E00               	movlw	0
  3758  001C6C  0100               	movlb	0	; () banked
  3759  001C6E  6F89               	movwf	___aldiv@sign& (0+255),b
  3760  001C70                     
  3761                           ; BSR set to: 0
  3762  001C70  BF87               	btfsc	(___aldiv@divisor+3)& (0+255),7,b
  3763  001C72  EF3F  F00E         	goto	u1620
  3764  001C76  EF3D  F00E         	goto	u1621
  3765  001C7A                     u1621:
  3766  001C7A  EF49  F00E         	goto	l1927
  3767  001C7E                     u1620:
  3768  001C7E                     
  3769                           ; BSR set to: 0
  3770  001C7E  1F87               	comf	(___aldiv@divisor+3)& (0+255),f,b
  3771  001C80  1F86               	comf	(___aldiv@divisor+2)& (0+255),f,b
  3772  001C82  1F85               	comf	(___aldiv@divisor+1)& (0+255),f,b
  3773  001C84  6D84               	negf	___aldiv@divisor& (0+255),b
  3774  001C86  0E00               	movlw	0
  3775  001C88  2385               	addwfc	(___aldiv@divisor+1)& (0+255),f,b
  3776  001C8A  2386               	addwfc	(___aldiv@divisor+2)& (0+255),f,b
  3777  001C8C  2387               	addwfc	(___aldiv@divisor+3)& (0+255),f,b
  3778  001C8E                     
  3779                           ; BSR set to: 0
  3780  001C8E  0E01               	movlw	1
  3781  001C90  6F89               	movwf	___aldiv@sign& (0+255),b
  3782  001C92                     l1927:
  3783                           
  3784                           ; BSR set to: 0
  3785  001C92  BF83               	btfsc	(___aldiv@dividend+3)& (0+255),7,b
  3786  001C94  EF50  F00E         	goto	u1630
  3787  001C98  EF4E  F00E         	goto	u1631
  3788  001C9C                     u1631:
  3789  001C9C  EF5A  F00E         	goto	l1933
  3790  001CA0                     u1630:
  3791  001CA0                     
  3792                           ; BSR set to: 0
  3793  001CA0  1F83               	comf	(___aldiv@dividend+3)& (0+255),f,b
  3794  001CA2  1F82               	comf	(___aldiv@dividend+2)& (0+255),f,b
  3795  001CA4  1F81               	comf	(___aldiv@dividend+1)& (0+255),f,b
  3796  001CA6  6D80               	negf	___aldiv@dividend& (0+255),b
  3797  001CA8  0E00               	movlw	0
  3798  001CAA  2381               	addwfc	(___aldiv@dividend+1)& (0+255),f,b
  3799  001CAC  2382               	addwfc	(___aldiv@dividend+2)& (0+255),f,b
  3800  001CAE  2383               	addwfc	(___aldiv@dividend+3)& (0+255),f,b
  3801  001CB0                     
  3802                           ; BSR set to: 0
  3803  001CB0  0E01               	movlw	1
  3804  001CB2  1B89               	xorwf	___aldiv@sign& (0+255),f,b
  3805  001CB4                     l1933:
  3806                           
  3807                           ; BSR set to: 0
  3808  001CB4  0E00               	movlw	0
  3809  001CB6  6F8A               	movwf	___aldiv@quotient& (0+255),b
  3810  001CB8  0E00               	movlw	0
  3811  001CBA  6F8B               	movwf	(___aldiv@quotient+1)& (0+255),b
  3812  001CBC  0E00               	movlw	0
  3813  001CBE  6F8C               	movwf	(___aldiv@quotient+2)& (0+255),b
  3814  001CC0  0E00               	movlw	0
  3815  001CC2  6F8D               	movwf	(___aldiv@quotient+3)& (0+255),b
  3816  001CC4                     
  3817                           ; BSR set to: 0
  3818  001CC4  5184               	movf	___aldiv@divisor& (0+255),w,b
  3819  001CC6  1185               	iorwf	(___aldiv@divisor+1)& (0+255),w,b
  3820  001CC8  1186               	iorwf	(___aldiv@divisor+2)& (0+255),w,b
  3821  001CCA  1187               	iorwf	(___aldiv@divisor+3)& (0+255),w,b
  3822  001CCC  B4D8               	btfsc	status,2,c
  3823  001CCE  EF6B  F00E         	goto	u1641
  3824  001CD2  EF6D  F00E         	goto	u1640
  3825  001CD6                     u1641:
  3826  001CD6  EFA3  F00E         	goto	l1955
  3827  001CDA                     u1640:
  3828  001CDA                     
  3829                           ; BSR set to: 0
  3830  001CDA  0E01               	movlw	1
  3831  001CDC  6F88               	movwf	___aldiv@counter& (0+255),b
  3832  001CDE  EF77  F00E         	goto	l1941
  3833  001CE2                     l1939:
  3834                           
  3835                           ; BSR set to: 0
  3836  001CE2  90D8               	bcf	status,0,c
  3837  001CE4  3784               	rlcf	___aldiv@divisor& (0+255),f,b
  3838  001CE6  3785               	rlcf	(___aldiv@divisor+1)& (0+255),f,b
  3839  001CE8  3786               	rlcf	(___aldiv@divisor+2)& (0+255),f,b
  3840  001CEA  3787               	rlcf	(___aldiv@divisor+3)& (0+255),f,b
  3841  001CEC  2B88               	incf	___aldiv@counter& (0+255),f,b
  3842  001CEE                     l1941:
  3843                           
  3844                           ; BSR set to: 0
  3845  001CEE  AF87               	btfss	(___aldiv@divisor+3)& (0+255),7,b
  3846  001CF0  EF7C  F00E         	goto	u1651
  3847  001CF4  EF7E  F00E         	goto	u1650
  3848  001CF8                     u1651:
  3849  001CF8  EF71  F00E         	goto	l1939
  3850  001CFC                     u1650:
  3851  001CFC                     l1943:
  3852                           
  3853                           ; BSR set to: 0
  3854  001CFC  90D8               	bcf	status,0,c
  3855  001CFE  378A               	rlcf	___aldiv@quotient& (0+255),f,b
  3856  001D00  378B               	rlcf	(___aldiv@quotient+1)& (0+255),f,b
  3857  001D02  378C               	rlcf	(___aldiv@quotient+2)& (0+255),f,b
  3858  001D04  378D               	rlcf	(___aldiv@quotient+3)& (0+255),f,b
  3859  001D06                     
  3860                           ; BSR set to: 0
  3861  001D06  5184               	movf	___aldiv@divisor& (0+255),w,b
  3862  001D08  5D80               	subwf	___aldiv@dividend& (0+255),w,b
  3863  001D0A  5185               	movf	(___aldiv@divisor+1)& (0+255),w,b
  3864  001D0C  5981               	subwfb	(___aldiv@dividend+1)& (0+255),w,b
  3865  001D0E  5186               	movf	(___aldiv@divisor+2)& (0+255),w,b
  3866  001D10  5982               	subwfb	(___aldiv@dividend+2)& (0+255),w,b
  3867  001D12  5187               	movf	(___aldiv@divisor+3)& (0+255),w,b
  3868  001D14  5983               	subwfb	(___aldiv@dividend+3)& (0+255),w,b
  3869  001D16  A0D8               	btfss	status,0,c
  3870  001D18  EF90  F00E         	goto	u1661
  3871  001D1C  EF92  F00E         	goto	u1660
  3872  001D20                     u1661:
  3873  001D20  EF9B  F00E         	goto	l1951
  3874  001D24                     u1660:
  3875  001D24                     
  3876                           ; BSR set to: 0
  3877  001D24  5184               	movf	___aldiv@divisor& (0+255),w,b
  3878  001D26  5F80               	subwf	___aldiv@dividend& (0+255),f,b
  3879  001D28  5185               	movf	(___aldiv@divisor+1)& (0+255),w,b
  3880  001D2A  5B81               	subwfb	(___aldiv@dividend+1)& (0+255),f,b
  3881  001D2C  5186               	movf	(___aldiv@divisor+2)& (0+255),w,b
  3882  001D2E  5B82               	subwfb	(___aldiv@dividend+2)& (0+255),f,b
  3883  001D30  5187               	movf	(___aldiv@divisor+3)& (0+255),w,b
  3884  001D32  5B83               	subwfb	(___aldiv@dividend+3)& (0+255),f,b
  3885  001D34                     
  3886                           ; BSR set to: 0
  3887  001D34  818A               	bsf	___aldiv@quotient& (0+255),0,b
  3888  001D36                     l1951:
  3889                           
  3890                           ; BSR set to: 0
  3891  001D36  90D8               	bcf	status,0,c
  3892  001D38  3387               	rrcf	(___aldiv@divisor+3)& (0+255),f,b
  3893  001D3A  3386               	rrcf	(___aldiv@divisor+2)& (0+255),f,b
  3894  001D3C  3385               	rrcf	(___aldiv@divisor+1)& (0+255),f,b
  3895  001D3E  3384               	rrcf	___aldiv@divisor& (0+255),f,b
  3896  001D40                     
  3897                           ; BSR set to: 0
  3898  001D40  2F88               	decfsz	___aldiv@counter& (0+255),f,b
  3899  001D42  EF7E  F00E         	goto	l1943
  3900  001D46                     l1955:
  3901                           
  3902                           ; BSR set to: 0
  3903  001D46  5189               	movf	___aldiv@sign& (0+255),w,b
  3904  001D48  B4D8               	btfsc	status,2,c
  3905  001D4A  EFA9  F00E         	goto	u1671
  3906  001D4E  EFAB  F00E         	goto	u1670
  3907  001D52                     u1671:
  3908  001D52  EFB3  F00E         	goto	l1959
  3909  001D56                     u1670:
  3910  001D56                     
  3911                           ; BSR set to: 0
  3912  001D56  1F8D               	comf	(___aldiv@quotient+3)& (0+255),f,b
  3913  001D58  1F8C               	comf	(___aldiv@quotient+2)& (0+255),f,b
  3914  001D5A  1F8B               	comf	(___aldiv@quotient+1)& (0+255),f,b
  3915  001D5C  6D8A               	negf	___aldiv@quotient& (0+255),b
  3916  001D5E  0E00               	movlw	0
  3917  001D60  238B               	addwfc	(___aldiv@quotient+1)& (0+255),f,b
  3918  001D62  238C               	addwfc	(___aldiv@quotient+2)& (0+255),f,b
  3919  001D64  238D               	addwfc	(___aldiv@quotient+3)& (0+255),f,b
  3920  001D66                     l1959:
  3921                           
  3922                           ; BSR set to: 0
  3923  001D66  C08A  F080         	movff	___aldiv@quotient,?___aldiv
  3924  001D6A  C08B  F081         	movff	___aldiv@quotient+1,?___aldiv+1
  3925  001D6E  C08C  F082         	movff	___aldiv@quotient+2,?___aldiv+2
  3926  001D72  C08D  F083         	movff	___aldiv@quotient+3,?___aldiv+3
  3927  001D76                     
  3928                           ; BSR set to: 0
  3929  001D76  0012               	return		;funcret
  3930  001D78                     __end_of___aldiv:
  3931                           	callstack 0
  3932                           
  3933 ;; *************** function _funtion *****************
  3934 ;; Defined at:
  3935 ;;		line 210 in file "newmain.c"
  3936 ;; Parameters:    Size  Location     Type
  3937 ;;		None
  3938 ;; Auto vars:     Size  Location     Type
  3939 ;;		None
  3940 ;; Return value:  Size  Location     Type
  3941 ;;                  1    wreg      void 
  3942 ;; Registers used:
  3943 ;;		wreg, status,2, status,0, prodl, prodh, cstack
  3944 ;; Tracked objects:
  3945 ;;		On entry : 0/0
  3946 ;;		On exit  : 0/0
  3947 ;;		Unchanged: 0/0
  3948 ;; Data sizes:     COMRAM   BANK0   BANK1   BANK2   BANK3   BANK4   BANK5
  3949 ;;      Params:         0       0       0       0       0       0       0
  3950 ;;      Locals:         0       0       0       0       0       0       0
  3951 ;;      Temps:          2       0       0       0       0       0       0
  3952 ;;      Totals:         2       0       0       0       0       0       0
  3953 ;;Total ram usage:        2 bytes
  3954 ;; Hardware stack levels used: 1
  3955 ;; Hardware stack levels required when called: 2
  3956 ;; This function calls:
  3957 ;;		i2_PWM1_Duty
  3958 ;; This function is called by:
  3959 ;;		Interrupt level 2
  3960 ;; This function uses a non-reentrant model
  3961 ;;
  3962                           
  3963                           	psect	intcode
  3964  000008                     __pintcode:
  3965                           	callstack 0
  3966  000008                     _funtion:
  3967                           	callstack 26
  3968                           
  3969                           ; BSR set to: 0
  3970                           ;incstack = 0
  3971  000008  8263               	bsf	int$flags,1,c	;set compiler interrupt flag (level 2)
  3972  00000A  ED84  F00C         	call	int_func,f	;refresh shadow registers
  3973                           
  3974                           	psect	intcode_body
  3975  001908                     __pintcode_body:
  3976                           	callstack 26
  3977  001908                     int_func:
  3978                           	callstack 26
  3979  001908  0006               	pop		; remove dummy address from shadow register refresh
  3980  00190A  CFF3 F05F          	movff	prodl,??_funtion
  3981  00190E  CFF4 F060          	movff	prodh,??_funtion+1
  3982  001912                     
  3983                           ;newmain.c: 212:     if (INTCONbits.RBIF == 1)
  3984  001912  A0F2               	btfss	242,0,c	;volatile
  3985  001914  EF8E  F00C         	goto	i2u312_41
  3986  001918  EF90  F00C         	goto	i2u312_40
  3987  00191C                     i2u312_41:
  3988  00191C  EF18  F00D         	goto	i2l2891
  3989  001920                     i2u312_40:
  3990  001920                     
  3991                           ;newmain.c: 213:     {;newmain.c: 214:         if (PORTBbits.RB4 == 0)
  3992  001920  B881               	btfsc	129,4,c	;volatile
  3993  001922  EF95  F00C         	goto	i2u313_41
  3994  001926  EF97  F00C         	goto	i2u313_40
  3995  00192A                     i2u313_41:
  3996  00192A  EFB6  F00C         	goto	i2l2863
  3997  00192E                     i2u313_40:
  3998  00192E                     
  3999                           ;newmain.c: 215:         {;newmain.c: 216:             if (state == 0)
  4000  00192E  5061               	movf	_state^0,w,c
  4001  001930  1062               	iorwf	(_state+1)^0,w,c
  4002  001932  A4D8               	btfss	status,2,c
  4003  001934  EF9E  F00C         	goto	i2u314_41
  4004  001938  EFA0  F00C         	goto	i2u314_40
  4005  00193C                     i2u314_41:
  4006  00193C  EFAC  F00C         	goto	i2l2859
  4007  001940                     i2u314_40:
  4008  001940                     
  4009                           ;newmain.c: 217:             {;newmain.c: 218:                 state = 1;
  4010  001940  0E00               	movlw	0
  4011  001942  6E62               	movwf	(_state+1)^0,c
  4012  001944  0E01               	movlw	1
  4013  001946  6E61               	movwf	_state^0,c
  4014  001948                     
  4015                           ;newmain.c: 219:                 PWM1_Duty(256);
  4016  001948  0E01               	movlw	1
  4017  00194A  6E5A               	movwf	(i2PWM1_Duty@duty+1)^0,c
  4018  00194C  0E00               	movlw	0
  4019  00194E  6E59               	movwf	i2PWM1_Duty@duty^0,c
  4020  001950  ECAC  F00D         	call	i2_PWM1_Duty	;wreg free
  4021                           
  4022                           ;newmain.c: 220:             } else
  4023  001954  EFB6  F00C         	goto	i2l2863
  4024  001958                     i2l2859:
  4025                           
  4026                           ;newmain.c: 221:             {;newmain.c: 222:                 state = 0;
  4027  001958  0E00               	movlw	0
  4028  00195A  6E62               	movwf	(_state+1)^0,c
  4029  00195C  0E00               	movlw	0
  4030  00195E  6E61               	movwf	_state^0,c
  4031  001960                     
  4032                           ;newmain.c: 223:                 PWM1_Duty(0);
  4033  001960  0E00               	movlw	0
  4034  001962  6E5A               	movwf	(i2PWM1_Duty@duty+1)^0,c
  4035  001964  0E00               	movlw	0
  4036  001966  6E59               	movwf	i2PWM1_Duty@duty^0,c
  4037  001968  ECAC  F00D         	call	i2_PWM1_Duty	;wreg free
  4038  00196C                     i2l2863:
  4039                           
  4040                           ;newmain.c: 226:         if (PORTBbits.RB5 == 0)
  4041  00196C  BA81               	btfsc	129,5,c	;volatile
  4042  00196E  EFBB  F00C         	goto	i2u315_41
  4043  001972  EFBD  F00C         	goto	i2u315_40
  4044  001976                     i2u315_41:
  4045  001976  EFE5  F00C         	goto	i2l2877
  4046  00197A                     i2u315_40:
  4047  00197A                     
  4048                           ;newmain.c: 227:         {;newmain.c: 228:             if (state == 1)
  4049  00197A  0461               	decf	_state^0,w,c
  4050  00197C  1062               	iorwf	(_state+1)^0,w,c
  4051  00197E  A4D8               	btfss	status,2,c
  4052  001980  EFC4  F00C         	goto	i2u316_41
  4053  001984  EFC6  F00C         	goto	i2u316_40
  4054  001988                     i2u316_41:
  4055  001988  EFD2  F00C         	goto	i2l2871
  4056  00198C                     i2u316_40:
  4057  00198C                     
  4058                           ;newmain.c: 229:             {;newmain.c: 230:                 state = 2;
  4059  00198C  0E00               	movlw	0
  4060  00198E  6E62               	movwf	(_state+1)^0,c
  4061  001990  0E02               	movlw	2
  4062  001992  6E61               	movwf	_state^0,c
  4063  001994                     
  4064                           ;newmain.c: 231:                 PWM1_Duty(512);
  4065  001994  0E02               	movlw	2
  4066  001996  6E5A               	movwf	(i2PWM1_Duty@duty+1)^0,c
  4067  001998  0E00               	movlw	0
  4068  00199A  6E59               	movwf	i2PWM1_Duty@duty^0,c
  4069  00199C  ECAC  F00D         	call	i2_PWM1_Duty	;wreg free
  4070                           
  4071                           ;newmain.c: 232:             } else if (state == 2)
  4072  0019A0  EFE5  F00C         	goto	i2l2877
  4073  0019A4                     i2l2871:
  4074  0019A4  0E02               	movlw	2
  4075  0019A6  1861               	xorwf	_state^0,w,c
  4076  0019A8  1062               	iorwf	(_state+1)^0,w,c
  4077  0019AA  A4D8               	btfss	status,2,c
  4078  0019AC  EFDA  F00C         	goto	i2u317_41
  4079  0019B0  EFDC  F00C         	goto	i2u317_40
  4080  0019B4                     i2u317_41:
  4081  0019B4  EFE5  F00C         	goto	i2l2877
  4082  0019B8                     i2u317_40:
  4083  0019B8                     
  4084                           ;newmain.c: 233:             {;newmain.c: 234:                 state = 3;
  4085  0019B8  0E00               	movlw	0
  4086  0019BA  6E62               	movwf	(_state+1)^0,c
  4087  0019BC  0E03               	movlw	3
  4088  0019BE  6E61               	movwf	_state^0,c
  4089  0019C0                     
  4090                           ;newmain.c: 235:                 PWM1_Duty(1023);
  4091  0019C0  0E03               	movlw	3
  4092  0019C2  6E5A               	movwf	(i2PWM1_Duty@duty+1)^0,c
  4093  0019C4  6859               	setf	i2PWM1_Duty@duty^0,c
  4094  0019C6  ECAC  F00D         	call	i2_PWM1_Duty	;wreg free
  4095  0019CA                     i2l2877:
  4096                           
  4097                           ;newmain.c: 239:         if (PORTBbits.RB6 == 0)
  4098  0019CA  BC81               	btfsc	129,6,c	;volatile
  4099  0019CC  EFEA  F00C         	goto	i2u318_41
  4100  0019D0  EFEC  F00C         	goto	i2u318_40
  4101  0019D4                     i2u318_41:
  4102  0019D4  EF18  F00D         	goto	i2l2891
  4103  0019D8                     i2u318_40:
  4104  0019D8                     
  4105                           ;newmain.c: 240:         {;newmain.c: 241:             if (state == 3)
  4106  0019D8  0E03               	movlw	3
  4107  0019DA  1861               	xorwf	_state^0,w,c
  4108  0019DC  1062               	iorwf	(_state+1)^0,w,c
  4109  0019DE  A4D8               	btfss	status,2,c
  4110  0019E0  EFF4  F00C         	goto	i2u319_41
  4111  0019E4  EFF6  F00C         	goto	i2u319_40
  4112  0019E8                     i2u319_41:
  4113  0019E8  EF02  F00D         	goto	i2l2885
  4114  0019EC                     i2u319_40:
  4115  0019EC                     
  4116                           ;newmain.c: 242:             {;newmain.c: 243:                 state = 2;
  4117  0019EC  0E00               	movlw	0
  4118  0019EE  6E62               	movwf	(_state+1)^0,c
  4119  0019F0  0E02               	movlw	2
  4120  0019F2  6E61               	movwf	_state^0,c
  4121  0019F4                     
  4122                           ;newmain.c: 244:                 PWM1_Duty(512);
  4123  0019F4  0E02               	movlw	2
  4124  0019F6  6E5A               	movwf	(i2PWM1_Duty@duty+1)^0,c
  4125  0019F8  0E00               	movlw	0
  4126  0019FA  6E59               	movwf	i2PWM1_Duty@duty^0,c
  4127  0019FC  ECAC  F00D         	call	i2_PWM1_Duty	;wreg free
  4128                           
  4129                           ;newmain.c: 245:             } else if (state == 2)
  4130  001A00  EF18  F00D         	goto	i2l2891
  4131  001A04                     i2l2885:
  4132  001A04  0E02               	movlw	2
  4133  001A06  1861               	xorwf	_state^0,w,c
  4134  001A08  1062               	iorwf	(_state+1)^0,w,c
  4135  001A0A  A4D8               	btfss	status,2,c
  4136  001A0C  EF0A  F00D         	goto	i2u320_41
  4137  001A10  EF0C  F00D         	goto	i2u320_40
  4138  001A14                     i2u320_41:
  4139  001A14  EF18  F00D         	goto	i2l103
  4140  001A18                     i2u320_40:
  4141  001A18                     
  4142                           ;newmain.c: 246:             {;newmain.c: 247:                 state = 1;
  4143  001A18  0E00               	movlw	0
  4144  001A1A  6E62               	movwf	(_state+1)^0,c
  4145  001A1C  0E01               	movlw	1
  4146  001A1E  6E61               	movwf	_state^0,c
  4147  001A20                     
  4148                           ;newmain.c: 248:                 PWM1_Duty(256);
  4149  001A20  0E01               	movlw	1
  4150  001A22  6E5A               	movwf	(i2PWM1_Duty@duty+1)^0,c
  4151  001A24  0E00               	movlw	0
  4152  001A26  6E59               	movwf	i2PWM1_Duty@duty^0,c
  4153  001A28  ECAC  F00D         	call	i2_PWM1_Duty	;wreg free
  4154  001A2C  EF18  F00D         	goto	i2l2891
  4155  001A30                     i2l103:
  4156  001A30                     i2l2891:
  4157                           
  4158                           ;newmain.c: 252:     INTCONbits.RBIF == 0;
  4159  001A30  50F2               	movf	242,w,c	;volatile
  4160  001A32  C060  FFF4         	movff	??_funtion+1,prodh
  4161  001A36  C05F  FFF3         	movff	??_funtion,prodl
  4162  001A3A  9263               	bcf	int$flags,1,c	;clear compiler interrupt flag (level 2)
  4163  001A3C  0011               	retfie		f
  4164  001A3E                     __end_of_funtion:
  4165                           	callstack 0
  4166                           
  4167 ;; *************** function i2_PWM1_Duty *****************
  4168 ;; Defined at:
  4169 ;;		line 118 in file "newmain.c"
  4170 ;; Parameters:    Size  Location     Type
  4171 ;;  duty            2   88[COMRAM] unsigned int 
  4172 ;; Auto vars:     Size  Location     Type
  4173 ;;		None
  4174 ;; Return value:  Size  Location     Type
  4175 ;;                  2   88[COMRAM] int 
  4176 ;; Registers used:
  4177 ;;		wreg, status,2, status,0, prodl, prodh, cstack
  4178 ;; Tracked objects:
  4179 ;;		On entry : 0/0
  4180 ;;		On exit  : 0/0
  4181 ;;		Unchanged: 0/0
  4182 ;; Data sizes:     COMRAM   BANK0   BANK1   BANK2   BANK3   BANK4   BANK5
  4183 ;;      Params:         2       0       0       0       0       0       0
  4184 ;;      Locals:         0       0       0       0       0       0       0
  4185 ;;      Temps:          4       0       0       0       0       0       0
  4186 ;;      Totals:         6       0       0       0       0       0       0
  4187 ;;Total ram usage:        6 bytes
  4188 ;; Hardware stack levels used: 1
  4189 ;; Hardware stack levels required when called: 1
  4190 ;; This function calls:
  4191 ;;		i2___aldiv
  4192 ;;		i2___fldiv
  4193 ;;		i2___flmul
  4194 ;;		i2___fltol
  4195 ;;		i2___xxtofl
  4196 ;; This function is called by:
  4197 ;;		_funtion
  4198 ;; This function uses a non-reentrant model
  4199 ;;
  4200                           
  4201                           	psect	text19
  4202  001B58                     __ptext19:
  4203                           	callstack 0
  4204  001B58                     i2_PWM1_Duty:
  4205                           	callstack 26
  4206  001B58                     
  4207                           ;newmain.c: 118: PWM1_Duty(unsigned int duty);newmain.c: 119: {;newmain.c: 120:     if (
      +                          duty<1024)
  4208  001B58  0E04               	movlw	4
  4209  001B5A  5C5A               	subwf	(i2PWM1_Duty@duty+1)^0,w,c
  4210  001B5C  B0D8               	btfsc	status,0,c
  4211  001B5E  EFB3  F00D         	goto	i2u308_41
  4212  001B62  EFB5  F00D         	goto	i2u308_40
  4213  001B66                     i2u308_41:
  4214  001B66  EF34  F00E         	goto	i2l84
  4215  001B6A                     i2u308_40:
  4216  001B6A                     
  4217                           ;newmain.c: 121:     {;newmain.c: 122:         duty = ((float)duty/1023)*(20000000/(u32T
      +                          empFrequency*4));
  4218  001B6A  C0E6  F05B         	movff	_u32TempFrequency,??i2_PWM1_Duty
  4219  001B6E  C0E7  F05C         	movff	_u32TempFrequency+1,??i2_PWM1_Duty+1
  4220  001B72  C0E8  F05D         	movff	_u32TempFrequency+2,??i2_PWM1_Duty+2
  4221  001B76  C0E9  F05E         	movff	_u32TempFrequency+3,??i2_PWM1_Duty+3
  4222  001B7A  0E02               	movlw	2
  4223  001B7C                     i2u309_45:
  4224  001B7C  90D8               	bcf	status,0,c
  4225  001B7E  365B               	rlcf	??i2_PWM1_Duty^0,f,c
  4226  001B80  365C               	rlcf	(??i2_PWM1_Duty+1)^0,f,c
  4227  001B82  365D               	rlcf	(??i2_PWM1_Duty+2)^0,f,c
  4228  001B84  365E               	rlcf	(??i2_PWM1_Duty+3)^0,f,c
  4229  001B86  2EE8               	decfsz	wreg,f,c
  4230  001B88  EFBE  F00D         	goto	i2u309_45
  4231  001B8C  C05B  F005         	movff	??i2_PWM1_Duty,i2___aldiv@divisor
  4232  001B90  C05C  F006         	movff	??i2_PWM1_Duty+1,i2___aldiv@divisor+1
  4233  001B94  C05D  F007         	movff	??i2_PWM1_Duty+2,i2___aldiv@divisor+2
  4234  001B98  C05E  F008         	movff	??i2_PWM1_Duty+3,i2___aldiv@divisor+3
  4235  001B9C  0E00               	movlw	0
  4236  001B9E  6E01               	movwf	i2___aldiv@dividend^0,c
  4237  001BA0  0E2D               	movlw	45
  4238  001BA2  6E02               	movwf	(i2___aldiv@dividend+1)^0,c
  4239  001BA4  0E31               	movlw	49
  4240  001BA6  6E03               	movwf	(i2___aldiv@dividend+2)^0,c
  4241  001BA8  0E01               	movlw	1
  4242  001BAA  6E04               	movwf	(i2___aldiv@dividend+3)^0,c
  4243  001BAC  ECBC  F00E         	call	i2___aldiv	;wreg free
  4244  001BB0  C001  F00F         	movff	?i2___aldiv,i2___xxtofl@val
  4245  001BB4  C002  F010         	movff	?i2___aldiv+1,i2___xxtofl@val+1
  4246  001BB8  C003  F011         	movff	?i2___aldiv+2,i2___xxtofl@val+2
  4247  001BBC  C004  F012         	movff	?i2___aldiv+3,i2___xxtofl@val+3
  4248  001BC0  0E01               	movlw	1
  4249  001BC2  ECAA  F00B         	call	i2___xxtofl
  4250  001BC6  C00F  F03A         	movff	?i2___xxtofl,i2___flmul@a
  4251  001BCA  C010  F03B         	movff	?i2___xxtofl+1,i2___flmul@a+1
  4252  001BCE  C011  F03C         	movff	?i2___xxtofl+2,i2___flmul@a+2
  4253  001BD2  C012  F03D         	movff	?i2___xxtofl+3,i2___flmul@a+3
  4254  001BD6  0E00               	movlw	0
  4255  001BD8  6E21               	movwf	i2___fldiv@a^0,c
  4256  001BDA  0EC0               	movlw	192
  4257  001BDC  6E22               	movwf	(i2___fldiv@a+1)^0,c
  4258  001BDE  0E7F               	movlw	127
  4259  001BE0  6E23               	movwf	(i2___fldiv@a+2)^0,c
  4260  001BE2  0E44               	movlw	68
  4261  001BE4  6E24               	movwf	(i2___fldiv@a+3)^0,c
  4262  001BE6  C059  F00F         	movff	i2PWM1_Duty@duty,i2___xxtofl@val
  4263  001BEA  C05A  F010         	movff	i2PWM1_Duty@duty+1,i2___xxtofl@val+1
  4264  001BEE  6A11               	clrf	(i2___xxtofl@val+2)^0,c
  4265  001BF0  6A12               	clrf	(i2___xxtofl@val+3)^0,c
  4266  001BF2  0E00               	movlw	0
  4267  001BF4  ECAA  F00B         	call	i2___xxtofl
  4268  001BF8  C00F  F01D         	movff	?i2___xxtofl,i2___fldiv@b
  4269  001BFC  C010  F01E         	movff	?i2___xxtofl+1,i2___fldiv@b+1
  4270  001C00  C011  F01F         	movff	?i2___xxtofl+2,i2___fldiv@b+2
  4271  001C04  C012  F020         	movff	?i2___xxtofl+3,i2___fldiv@b+3
  4272  001C08  EC01  F009         	call	i2___fldiv	;wreg free
  4273  001C0C  C01D  F036         	movff	?i2___fldiv,i2___flmul@b
  4274  001C10  C01E  F037         	movff	?i2___fldiv+1,i2___flmul@b+1
  4275  001C14  C01F  F038         	movff	?i2___fldiv+2,i2___flmul@b+2
  4276  001C18  C020  F039         	movff	?i2___fldiv+3,i2___flmul@b+3
  4277  001C1C  EC1E  F005         	call	i2___flmul	;wreg free
  4278  001C20  C036  F04F         	movff	?i2___flmul,i2___fltol@f1
  4279  001C24  C037  F050         	movff	?i2___flmul+1,i2___fltol@f1+1
  4280  001C28  C038  F051         	movff	?i2___flmul+2,i2___fltol@f1+2
  4281  001C2C  C039  F052         	movff	?i2___flmul+3,i2___fltol@f1+3
  4282  001C30  ECC6  F00F         	call	i2___fltol	;wreg free
  4283  001C34  C04F  F059         	movff	?i2___fltol,i2PWM1_Duty@duty
  4284  001C38  C050  F05A         	movff	?i2___fltol+1,i2PWM1_Duty@duty+1
  4285  001C3C                     
  4286                           ;newmain.c: 123:         CCP1X = duty & 2;
  4287  001C3C  9ABD               	bcf	4029,5,c	;volatile
  4288  001C3E                     
  4289                           ;newmain.c: 124:         CCP1Y = duty & 1;
  4290  001C3E  B059               	btfsc	i2PWM1_Duty@duty^0,0,c
  4291  001C40  EF24  F00E         	goto	i2u310_41
  4292  001C44  EF27  F00E         	goto	i2u310_40
  4293  001C48                     i2u310_41:
  4294  001C48  88BD               	bsf	4029,4,c	;volatile
  4295  001C4A  EF28  F00E         	goto	i2u311_45
  4296  001C4E                     i2u310_40:
  4297  001C4E  98BD               	bcf	4029,4,c	;volatile
  4298  001C50                     i2u311_45:
  4299  001C50                     
  4300                           ;newmain.c: 125:         CCPR1L = duty >> 2;
  4301  001C50  C059  F05B         	movff	i2PWM1_Duty@duty,??i2_PWM1_Duty
  4302  001C54  C05A  F05C         	movff	i2PWM1_Duty@duty+1,??i2_PWM1_Duty+1
  4303  001C58  90D8               	bcf	status,0,c
  4304  001C5A  325C               	rrcf	(??i2_PWM1_Duty+1)^0,f,c
  4305  001C5C  325B               	rrcf	??i2_PWM1_Duty^0,f,c
  4306  001C5E  90D8               	bcf	status,0,c
  4307  001C60  325C               	rrcf	(??i2_PWM1_Duty+1)^0,f,c
  4308  001C62  325B               	rrcf	??i2_PWM1_Duty^0,f,c
  4309  001C64  505B               	movf	??i2_PWM1_Duty^0,w,c
  4310  001C66  6EBE               	movwf	190,c	;volatile
  4311  001C68                     i2l84:
  4312  001C68  0012               	return		;funcret
  4313  001C6A                     __end_ofi2_PWM1_Duty:
  4314                           	callstack 0
  4315                           
  4316 ;; *************** function i2___xxtofl *****************
  4317 ;; Defined at:
  4318 ;;		line 10 in file "C:\Program Files\Microchip\xc8\v2.32\pic\sources\c99\common\xxtofl.c"
  4319 ;; Parameters:    Size  Location     Type
  4320 ;;  sign            1    wreg     unsigned char 
  4321 ;;  val             4   14[COMRAM] long 
  4322 ;; Auto vars:     Size  Location     Type
  4323 ;;  sign            1   22[COMRAM] unsigned char 
  4324 ;;  arg             4   24[COMRAM] unsigned long 
  4325 ;;  exp             1   23[COMRAM] unsigned char 
  4326 ;; Return value:  Size  Location     Type
  4327 ;;                  4   14[COMRAM] unsigned char 
  4328 ;; Registers used:
  4329 ;;		wreg, status,2, status,0
  4330 ;; Tracked objects:
  4331 ;;		On entry : 0/0
  4332 ;;		On exit  : 0/0
  4333 ;;		Unchanged: 0/0
  4334 ;; Data sizes:     COMRAM   BANK0   BANK1   BANK2   BANK3   BANK4   BANK5
  4335 ;;      Params:         4       0       0       0       0       0       0
  4336 ;;      Locals:         6       0       0       0       0       0       0
  4337 ;;      Temps:          4       0       0       0       0       0       0
  4338 ;;      Totals:        14       0       0       0       0       0       0
  4339 ;;Total ram usage:       14 bytes
  4340 ;; Hardware stack levels used: 1
  4341 ;; This function calls:
  4342 ;;		Nothing
  4343 ;; This function is called by:
  4344 ;;		i2_PWM1_Duty
  4345 ;; This function uses a non-reentrant model
  4346 ;;
  4347                           
  4348                           	psect	text20
  4349  001754                     __ptext20:
  4350                           	callstack 0
  4351  001754                     i2___xxtofl:
  4352                           	callstack 26
  4353                           
  4354                           ;incstack = 0
  4355                           ;i2___xxtofl@sign stored from wreg
  4356  001754  6E17               	movwf	i2___xxtofl@sign^0,c
  4357  001756  5017               	movf	i2___xxtofl@sign^0,w,c
  4358  001758  B4D8               	btfsc	status,2,c
  4359  00175A  EFB1  F00B         	goto	i2u288_41
  4360  00175E  EFB3  F00B         	goto	i2u288_40
  4361  001762                     i2u288_41:
  4362  001762  EFD5  F00B         	goto	i2l803
  4363  001766                     i2u288_40:
  4364  001766  BE12               	btfsc	(i2___xxtofl@val+3)^0,7,c
  4365  001768  EFBA  F00B         	goto	i2u289_40
  4366  00176C  EFB8  F00B         	goto	i2u289_41
  4367  001770                     i2u289_41:
  4368  001770  EFD5  F00B         	goto	i2l803
  4369  001774                     i2u289_40:
  4370  001774  C00F  F013         	movff	i2___xxtofl@val,??i2___xxtofl
  4371  001778  C010  F014         	movff	i2___xxtofl@val+1,??i2___xxtofl+1
  4372  00177C  C011  F015         	movff	i2___xxtofl@val+2,??i2___xxtofl+2
  4373  001780  C012  F016         	movff	i2___xxtofl@val+3,??i2___xxtofl+3
  4374  001784  1E13               	comf	??i2___xxtofl^0,f,c
  4375  001786  1E14               	comf	(??i2___xxtofl+1)^0,f,c
  4376  001788  1E15               	comf	(??i2___xxtofl+2)^0,f,c
  4377  00178A  1E16               	comf	(??i2___xxtofl+3)^0,f,c
  4378  00178C  2A13               	incf	??i2___xxtofl^0,f,c
  4379  00178E  0E00               	movlw	0
  4380  001790  2214               	addwfc	(??i2___xxtofl+1)^0,f,c
  4381  001792  2215               	addwfc	(??i2___xxtofl+2)^0,f,c
  4382  001794  2216               	addwfc	(??i2___xxtofl+3)^0,f,c
  4383  001796  C013  F019         	movff	??i2___xxtofl,i2___xxtofl@arg
  4384  00179A  C014  F01A         	movff	??i2___xxtofl+1,i2___xxtofl@arg+1
  4385  00179E  C015  F01B         	movff	??i2___xxtofl+2,i2___xxtofl@arg+2
  4386  0017A2  C016  F01C         	movff	??i2___xxtofl+3,i2___xxtofl@arg+3
  4387  0017A6  EFDD  F00B         	goto	i2l2727
  4388  0017AA                     i2l803:
  4389  0017AA  C00F  F019         	movff	i2___xxtofl@val,i2___xxtofl@arg
  4390  0017AE  C010  F01A         	movff	i2___xxtofl@val+1,i2___xxtofl@arg+1
  4391  0017B2  C011  F01B         	movff	i2___xxtofl@val+2,i2___xxtofl@arg+2
  4392  0017B6  C012  F01C         	movff	i2___xxtofl@val+3,i2___xxtofl@arg+3
  4393  0017BA                     i2l2727:
  4394  0017BA  500F               	movf	i2___xxtofl@val^0,w,c
  4395  0017BC  1010               	iorwf	(i2___xxtofl@val+1)^0,w,c
  4396  0017BE  1011               	iorwf	(i2___xxtofl@val+2)^0,w,c
  4397  0017C0  1012               	iorwf	(i2___xxtofl@val+3)^0,w,c
  4398  0017C2  A4D8               	btfss	status,2,c
  4399  0017C4  EFE6  F00B         	goto	i2u290_41
  4400  0017C8  EFE8  F00B         	goto	i2u290_40
  4401  0017CC                     i2u290_41:
  4402  0017CC  EFF2  F00B         	goto	i2l2733
  4403  0017D0                     i2u290_40:
  4404  0017D0  0E00               	movlw	0
  4405  0017D2  6E0F               	movwf	?i2___xxtofl^0,c
  4406  0017D4  0E00               	movlw	0
  4407  0017D6  6E10               	movwf	(?i2___xxtofl+1)^0,c
  4408  0017D8  0E00               	movlw	0
  4409  0017DA  6E11               	movwf	(?i2___xxtofl+2)^0,c
  4410  0017DC  0E00               	movlw	0
  4411  0017DE  6E12               	movwf	(?i2___xxtofl+3)^0,c
  4412  0017E0  EF83  F00C         	goto	i2l806
  4413  0017E4                     i2l2733:
  4414  0017E4  0E96               	movlw	150
  4415  0017E6  6E18               	movwf	i2___xxtofl@exp^0,c
  4416  0017E8  EFFC  F00B         	goto	i2l2737
  4417  0017EC                     i2l2735:
  4418  0017EC  2A18               	incf	i2___xxtofl@exp^0,f,c
  4419  0017EE  90D8               	bcf	status,0,c
  4420  0017F0  321C               	rrcf	(i2___xxtofl@arg+3)^0,f,c
  4421  0017F2  321B               	rrcf	(i2___xxtofl@arg+2)^0,f,c
  4422  0017F4  321A               	rrcf	(i2___xxtofl@arg+1)^0,f,c
  4423  0017F6  3219               	rrcf	i2___xxtofl@arg^0,f,c
  4424  0017F8                     i2l2737:
  4425  0017F8  0E00               	movlw	0
  4426  0017FA  1419               	andwf	i2___xxtofl@arg^0,w,c
  4427  0017FC  6E13               	movwf	??i2___xxtofl^0,c
  4428  0017FE  0E00               	movlw	0
  4429  001800  141A               	andwf	(i2___xxtofl@arg+1)^0,w,c
  4430  001802  6E14               	movwf	(??i2___xxtofl+1)^0,c
  4431  001804  0E00               	movlw	0
  4432  001806  141B               	andwf	(i2___xxtofl@arg+2)^0,w,c
  4433  001808  6E15               	movwf	(??i2___xxtofl+2)^0,c
  4434  00180A  0EFE               	movlw	254
  4435  00180C  141C               	andwf	(i2___xxtofl@arg+3)^0,w,c
  4436  00180E  6E16               	movwf	(??i2___xxtofl+3)^0,c
  4437  001810  5013               	movf	??i2___xxtofl^0,w,c
  4438  001812  1014               	iorwf	(??i2___xxtofl+1)^0,w,c
  4439  001814  1015               	iorwf	(??i2___xxtofl+2)^0,w,c
  4440  001816  1016               	iorwf	(??i2___xxtofl+3)^0,w,c
  4441  001818  A4D8               	btfss	status,2,c
  4442  00181A  EF11  F00C         	goto	i2u291_41
  4443  00181E  EF13  F00C         	goto	i2u291_40
  4444  001822                     i2u291_41:
  4445  001822  EFF6  F00B         	goto	i2l2735
  4446  001826                     i2u291_40:
  4447  001826  EF21  F00C         	goto	i2l810
  4448  00182A                     i2l2739:
  4449  00182A  2A18               	incf	i2___xxtofl@exp^0,f,c
  4450  00182C  0E01               	movlw	1
  4451  00182E  2619               	addwf	i2___xxtofl@arg^0,f,c
  4452  001830  0E00               	movlw	0
  4453  001832  221A               	addwfc	(i2___xxtofl@arg+1)^0,f,c
  4454  001834  221B               	addwfc	(i2___xxtofl@arg+2)^0,f,c
  4455  001836  221C               	addwfc	(i2___xxtofl@arg+3)^0,f,c
  4456  001838  90D8               	bcf	status,0,c
  4457  00183A  321C               	rrcf	(i2___xxtofl@arg+3)^0,f,c
  4458  00183C  321B               	rrcf	(i2___xxtofl@arg+2)^0,f,c
  4459  00183E  321A               	rrcf	(i2___xxtofl@arg+1)^0,f,c
  4460  001840  3219               	rrcf	i2___xxtofl@arg^0,f,c
  4461  001842                     i2l810:
  4462  001842  0E00               	movlw	0
  4463  001844  1419               	andwf	i2___xxtofl@arg^0,w,c
  4464  001846  6E13               	movwf	??i2___xxtofl^0,c
  4465  001848  0E00               	movlw	0
  4466  00184A  141A               	andwf	(i2___xxtofl@arg+1)^0,w,c
  4467  00184C  6E14               	movwf	(??i2___xxtofl+1)^0,c
  4468  00184E  0E00               	movlw	0
  4469  001850  141B               	andwf	(i2___xxtofl@arg+2)^0,w,c
  4470  001852  6E15               	movwf	(??i2___xxtofl+2)^0,c
  4471  001854  0EFF               	movlw	255
  4472  001856  141C               	andwf	(i2___xxtofl@arg+3)^0,w,c
  4473  001858  6E16               	movwf	(??i2___xxtofl+3)^0,c
  4474  00185A  5013               	movf	??i2___xxtofl^0,w,c
  4475  00185C  1014               	iorwf	(??i2___xxtofl+1)^0,w,c
  4476  00185E  1015               	iorwf	(??i2___xxtofl+2)^0,w,c
  4477  001860  1016               	iorwf	(??i2___xxtofl+3)^0,w,c
  4478  001862  A4D8               	btfss	status,2,c
  4479  001864  EF36  F00C         	goto	i2u292_41
  4480  001868  EF38  F00C         	goto	i2u292_40
  4481  00186C                     i2u292_41:
  4482  00186C  EF15  F00C         	goto	i2l2739
  4483  001870                     i2u292_40:
  4484  001870  EF40  F00C         	goto	i2l2747
  4485  001874                     i2l2745:
  4486  001874  0618               	decf	i2___xxtofl@exp^0,f,c
  4487  001876  90D8               	bcf	status,0,c
  4488  001878  3619               	rlcf	i2___xxtofl@arg^0,f,c
  4489  00187A  361A               	rlcf	(i2___xxtofl@arg+1)^0,f,c
  4490  00187C  361B               	rlcf	(i2___xxtofl@arg+2)^0,f,c
  4491  00187E  361C               	rlcf	(i2___xxtofl@arg+3)^0,f,c
  4492  001880                     i2l2747:
  4493  001880  BE1B               	btfsc	(i2___xxtofl@arg+2)^0,7,c
  4494  001882  EF45  F00C         	goto	i2u293_41
  4495  001886  EF47  F00C         	goto	i2u293_40
  4496  00188A                     i2u293_41:
  4497  00188A  EF4F  F00C         	goto	i2l817
  4498  00188E                     i2u293_40:
  4499  00188E  0E02               	movlw	2
  4500  001890  6018               	cpfslt	i2___xxtofl@exp^0,c
  4501  001892  EF4D  F00C         	goto	i2u294_41
  4502  001896  EF4F  F00C         	goto	i2u294_40
  4503  00189A                     i2u294_41:
  4504  00189A  EF3A  F00C         	goto	i2l2745
  4505  00189E                     i2u294_40:
  4506  00189E                     i2l817:
  4507  00189E  B018               	btfsc	i2___xxtofl@exp^0,0,c
  4508  0018A0  EF54  F00C         	goto	i2u295_41
  4509  0018A4  EF56  F00C         	goto	i2u295_40
  4510  0018A8                     i2u295_41:
  4511  0018A8  EF57  F00C         	goto	i2l2753
  4512  0018AC                     i2u295_40:
  4513  0018AC  9E1B               	bcf	(i2___xxtofl@arg+2)^0,7,c
  4514  0018AE                     i2l2753:
  4515  0018AE  90D8               	bcf	status,0,c
  4516  0018B0  3218               	rrcf	i2___xxtofl@exp^0,f,c
  4517  0018B2  C018  F013         	movff	i2___xxtofl@exp,??i2___xxtofl
  4518  0018B6  6A14               	clrf	(??i2___xxtofl+1)^0,c
  4519  0018B8  6A15               	clrf	(??i2___xxtofl+2)^0,c
  4520  0018BA  6A16               	clrf	(??i2___xxtofl+3)^0,c
  4521  0018BC  C013  F016         	movff	??i2___xxtofl,??i2___xxtofl+3
  4522  0018C0  6A15               	clrf	(??i2___xxtofl+2)^0,c
  4523  0018C2  6A14               	clrf	(??i2___xxtofl+1)^0,c
  4524  0018C4  6A13               	clrf	??i2___xxtofl^0,c
  4525  0018C6  5013               	movf	??i2___xxtofl^0,w,c
  4526  0018C8  1219               	iorwf	i2___xxtofl@arg^0,f,c
  4527  0018CA  5014               	movf	(??i2___xxtofl+1)^0,w,c
  4528  0018CC  121A               	iorwf	(i2___xxtofl@arg+1)^0,f,c
  4529  0018CE  5015               	movf	(??i2___xxtofl+2)^0,w,c
  4530  0018D0  121B               	iorwf	(i2___xxtofl@arg+2)^0,f,c
  4531  0018D2  5016               	movf	(??i2___xxtofl+3)^0,w,c
  4532  0018D4  121C               	iorwf	(i2___xxtofl@arg+3)^0,f,c
  4533  0018D6  5017               	movf	i2___xxtofl@sign^0,w,c
  4534  0018D8  B4D8               	btfsc	status,2,c
  4535  0018DA  EF71  F00C         	goto	i2u296_41
  4536  0018DE  EF73  F00C         	goto	i2u296_40
  4537  0018E2                     i2u296_41:
  4538  0018E2  EF7B  F00C         	goto	i2l2763
  4539  0018E6                     i2u296_40:
  4540  0018E6  BE12               	btfsc	(i2___xxtofl@val+3)^0,7,c
  4541  0018E8  EF7A  F00C         	goto	i2u297_40
  4542  0018EC  EF78  F00C         	goto	i2u297_41
  4543  0018F0                     i2u297_41:
  4544  0018F0  EF7B  F00C         	goto	i2l2763
  4545  0018F4                     i2u297_40:
  4546  0018F4  8E1C               	bsf	(i2___xxtofl@arg+3)^0,7,c
  4547  0018F6                     i2l2763:
  4548  0018F6  C019  F00F         	movff	i2___xxtofl@arg,?i2___xxtofl
  4549  0018FA  C01A  F010         	movff	i2___xxtofl@arg+1,?i2___xxtofl+1
  4550  0018FE  C01B  F011         	movff	i2___xxtofl@arg+2,?i2___xxtofl+2
  4551  001902  C01C  F012         	movff	i2___xxtofl@arg+3,?i2___xxtofl+3
  4552  001906                     i2l806:
  4553  001906  0012               	return		;funcret
  4554  001908                     __end_ofi2___xxtofl:
  4555                           	callstack 0
  4556                           
  4557 ;; *************** function i2___fltol *****************
  4558 ;; Defined at:
  4559 ;;		line 43 in file "C:\Program Files\Microchip\xc8\v2.32\pic\sources\c99\common\fltol.c"
  4560 ;; Parameters:    Size  Location     Type
  4561 ;;  f1              4   78[COMRAM] unsigned char 
  4562 ;; Auto vars:     Size  Location     Type
  4563 ;;  exp1            1   87[COMRAM] unsigned char 
  4564 ;;  sign1           1   86[COMRAM] unsigned char 
  4565 ;; Return value:  Size  Location     Type
  4566 ;;                  4   78[COMRAM] long 
  4567 ;; Registers used:
  4568 ;;		wreg, status,2, status,0
  4569 ;; Tracked objects:
  4570 ;;		On entry : 0/0
  4571 ;;		On exit  : 0/0
  4572 ;;		Unchanged: 0/0
  4573 ;; Data sizes:     COMRAM   BANK0   BANK1   BANK2   BANK3   BANK4   BANK5
  4574 ;;      Params:         4       0       0       0       0       0       0
  4575 ;;      Locals:         2       0       0       0       0       0       0
  4576 ;;      Temps:          4       0       0       0       0       0       0
  4577 ;;      Totals:        10       0       0       0       0       0       0
  4578 ;;Total ram usage:       10 bytes
  4579 ;; Hardware stack levels used: 1
  4580 ;; This function calls:
  4581 ;;		Nothing
  4582 ;; This function is called by:
  4583 ;;		i2_PWM1_Duty
  4584 ;; This function uses a non-reentrant model
  4585 ;;
  4586                           
  4587                           	psect	text21
  4588  001F8C                     __ptext21:
  4589                           	callstack 0
  4590  001F8C                     i2___fltol:
  4591                           	callstack 26
  4592  001F8C  3451               	rlcf	(i2___fltol@f1+2)^0,w,c
  4593  001F8E  3452               	rlcf	(i2___fltol@f1+3)^0,w,c
  4594  001F90  6E58               	movwf	i2___fltol@exp1^0,c
  4595  001F92  5058               	movf	i2___fltol@exp1^0,w,c
  4596  001F94  A4D8               	btfss	status,2,c
  4597  001F96  EFCF  F00F         	goto	i2u239_41
  4598  001F9A  EFD1  F00F         	goto	i2u239_40
  4599  001F9E                     i2u239_41:
  4600  001F9E  EFDB  F00F         	goto	i2l2415
  4601  001FA2                     i2u239_40:
  4602  001FA2                     i2l2411:
  4603  001FA2  0E00               	movlw	0
  4604  001FA4  6E4F               	movwf	?i2___fltol^0,c
  4605  001FA6  0E00               	movlw	0
  4606  001FA8  6E50               	movwf	(?i2___fltol+1)^0,c
  4607  001FAA  0E00               	movlw	0
  4608  001FAC  6E51               	movwf	(?i2___fltol+2)^0,c
  4609  001FAE  0E00               	movlw	0
  4610  001FB0  6E52               	movwf	(?i2___fltol+3)^0,c
  4611  001FB2  EF48  F010         	goto	i2l445
  4612  001FB6                     i2l2415:
  4613  001FB6  C04F  F053         	movff	i2___fltol@f1,??i2___fltol
  4614  001FBA  C050  F054         	movff	i2___fltol@f1+1,??i2___fltol+1
  4615  001FBE  C051  F055         	movff	i2___fltol@f1+2,??i2___fltol+2
  4616  001FC2  C052  F056         	movff	i2___fltol@f1+3,??i2___fltol+3
  4617  001FC6  0E20               	movlw	32
  4618  001FC8  EFEB  F00F         	goto	i2u240_40
  4619  001FCC                     i2u240_45:
  4620  001FCC  90D8               	bcf	status,0,c
  4621  001FCE  3256               	rrcf	(??i2___fltol+3)^0,f,c
  4622  001FD0  3255               	rrcf	(??i2___fltol+2)^0,f,c
  4623  001FD2  3254               	rrcf	(??i2___fltol+1)^0,f,c
  4624  001FD4  3253               	rrcf	??i2___fltol^0,f,c
  4625  001FD6                     i2u240_40:
  4626  001FD6  2EE8               	decfsz	wreg,f,c
  4627  001FD8  EFE6  F00F         	goto	i2u240_45
  4628  001FDC  5053               	movf	??i2___fltol^0,w,c
  4629  001FDE  6E57               	movwf	i2___fltol@sign1^0,c
  4630  001FE0  8E51               	bsf	(i2___fltol@f1+2)^0,7,c
  4631  001FE2  0EFF               	movlw	255
  4632  001FE4  164F               	andwf	i2___fltol@f1^0,f,c
  4633  001FE6  0EFF               	movlw	255
  4634  001FE8  1650               	andwf	(i2___fltol@f1+1)^0,f,c
  4635  001FEA  0EFF               	movlw	255
  4636  001FEC  1651               	andwf	(i2___fltol@f1+2)^0,f,c
  4637  001FEE  0E00               	movlw	0
  4638  001FF0  1652               	andwf	(i2___fltol@f1+3)^0,f,c
  4639  001FF2  0E96               	movlw	150
  4640  001FF4  5E58               	subwf	i2___fltol@exp1^0,f,c
  4641  001FF6  BE58               	btfsc	i2___fltol@exp1^0,7,c
  4642  001FF8  EF02  F010         	goto	i2u241_40
  4643  001FFC  EF00  F010         	goto	i2u241_41
  4644  002000                     i2u241_41:
  4645  002000  EF18  F010         	goto	i2l2435
  4646  002004                     i2u241_40:
  4647  002004  5058               	movf	i2___fltol@exp1^0,w,c
  4648  002006  0A80               	xorlw	128
  4649  002008  0F97               	addlw	151
  4650  00200A  B0D8               	btfsc	status,0,c
  4651  00200C  EF0A  F010         	goto	i2u242_41
  4652  002010  EF0C  F010         	goto	i2u242_40
  4653  002014                     i2u242_41:
  4654  002014  EF0E  F010         	goto	i2l2431
  4655  002018                     i2u242_40:
  4656  002018  EFD1  F00F         	goto	i2l2411
  4657  00201C                     i2l2431:
  4658  00201C  90D8               	bcf	status,0,c
  4659  00201E  3252               	rrcf	(i2___fltol@f1+3)^0,f,c
  4660  002020  3251               	rrcf	(i2___fltol@f1+2)^0,f,c
  4661  002022  3250               	rrcf	(i2___fltol@f1+1)^0,f,c
  4662  002024  324F               	rrcf	i2___fltol@f1^0,f,c
  4663  002026  3E58               	incfsz	i2___fltol@exp1^0,f,c
  4664  002028  EF0E  F010         	goto	i2l2431
  4665  00202C  EF30  F010         	goto	i2l2445
  4666  002030                     i2l2435:
  4667  002030  0E1F               	movlw	31
  4668  002032  6458               	cpfsgt	i2___fltol@exp1^0,c
  4669  002034  EF1E  F010         	goto	i2u243_41
  4670  002038  EF20  F010         	goto	i2u243_40
  4671  00203C                     i2u243_41:
  4672  00203C  EF28  F010         	goto	i2l2443
  4673  002040                     i2u243_40:
  4674  002040  EFD1  F00F         	goto	i2l2411
  4675  002044                     i2l2441:
  4676  002044  90D8               	bcf	status,0,c
  4677  002046  364F               	rlcf	i2___fltol@f1^0,f,c
  4678  002048  3650               	rlcf	(i2___fltol@f1+1)^0,f,c
  4679  00204A  3651               	rlcf	(i2___fltol@f1+2)^0,f,c
  4680  00204C  3652               	rlcf	(i2___fltol@f1+3)^0,f,c
  4681  00204E  0658               	decf	i2___fltol@exp1^0,f,c
  4682  002050                     i2l2443:
  4683  002050  5058               	movf	i2___fltol@exp1^0,w,c
  4684  002052  A4D8               	btfss	status,2,c
  4685  002054  EF2E  F010         	goto	i2u244_41
  4686  002058  EF30  F010         	goto	i2u244_40
  4687  00205C                     i2u244_41:
  4688  00205C  EF22  F010         	goto	i2l2441
  4689  002060                     i2u244_40:
  4690  002060                     i2l2445:
  4691  002060  5057               	movf	i2___fltol@sign1^0,w,c
  4692  002062  B4D8               	btfsc	status,2,c
  4693  002064  EF36  F010         	goto	i2u245_41
  4694  002068  EF38  F010         	goto	i2u245_40
  4695  00206C                     i2u245_41:
  4696  00206C  EF40  F010         	goto	i2l2449
  4697  002070                     i2u245_40:
  4698  002070  1E52               	comf	(i2___fltol@f1+3)^0,f,c
  4699  002072  1E51               	comf	(i2___fltol@f1+2)^0,f,c
  4700  002074  1E50               	comf	(i2___fltol@f1+1)^0,f,c
  4701  002076  6C4F               	negf	i2___fltol@f1^0,c
  4702  002078  0E00               	movlw	0
  4703  00207A  2250               	addwfc	(i2___fltol@f1+1)^0,f,c
  4704  00207C  2251               	addwfc	(i2___fltol@f1+2)^0,f,c
  4705  00207E  2252               	addwfc	(i2___fltol@f1+3)^0,f,c
  4706  002080                     i2l2449:
  4707  002080  C04F  F04F         	movff	i2___fltol@f1,?i2___fltol
  4708  002084  C050  F050         	movff	i2___fltol@f1+1,?i2___fltol+1
  4709  002088  C051  F051         	movff	i2___fltol@f1+2,?i2___fltol+2
  4710  00208C  C052  F052         	movff	i2___fltol@f1+3,?i2___fltol+3
  4711  002090                     i2l445:
  4712  002090  0012               	return		;funcret
  4713  002092                     __end_ofi2___fltol:
  4714                           	callstack 0
  4715                           
  4716 ;; *************** function i2___flmul *****************
  4717 ;; Defined at:
  4718 ;;		line 8 in file "C:\Program Files\Microchip\xc8\v2.32\pic\sources\c99\common\sprcmul.c"
  4719 ;; Parameters:    Size  Location     Type
  4720 ;;  b               4   53[COMRAM] long 
  4721 ;;  a               4   57[COMRAM] long 
  4722 ;; Auto vars:     Size  Location     Type
  4723 ;;  prod            4   72[COMRAM] struct .
  4724 ;;  grs             4   66[COMRAM] unsigned long 
  4725 ;;  temp            2   76[COMRAM] struct .
  4726 ;;  bexp            1   71[COMRAM] unsigned char 
  4727 ;;  aexp            1   70[COMRAM] unsigned char 
  4728 ;;  sign            1   65[COMRAM] unsigned char 
  4729 ;; Return value:  Size  Location     Type
  4730 ;;                  4   53[COMRAM] unsigned char 
  4731 ;; Registers used:
  4732 ;;		wreg, status,2, status,0, prodl, prodh
  4733 ;; Tracked objects:
  4734 ;;		On entry : 0/0
  4735 ;;		On exit  : 0/0
  4736 ;;		Unchanged: 0/0
  4737 ;; Data sizes:     COMRAM   BANK0   BANK1   BANK2   BANK3   BANK4   BANK5
  4738 ;;      Params:         8       0       0       0       0       0       0
  4739 ;;      Locals:        13       0       0       0       0       0       0
  4740 ;;      Temps:          4       0       0       0       0       0       0
  4741 ;;      Totals:        25       0       0       0       0       0       0
  4742 ;;Total ram usage:       25 bytes
  4743 ;; Hardware stack levels used: 1
  4744 ;; This function calls:
  4745 ;;		Nothing
  4746 ;; This function is called by:
  4747 ;;		i2_PWM1_Duty
  4748 ;; This function uses a non-reentrant model
  4749 ;;
  4750                           
  4751                           	psect	text22
  4752  000A3C                     __ptext22:
  4753                           	callstack 0
  4754  000A3C                     i2___flmul:
  4755                           	callstack 26
  4756  000A3C  5039               	movf	(i2___flmul@b+3)^0,w,c
  4757  000A3E  0B80               	andlw	128
  4758  000A40  6E42               	movwf	i2___flmul@sign^0,c
  4759  000A42  5039               	movf	(i2___flmul@b+3)^0,w,c
  4760  000A44  2439               	addwf	(i2___flmul@b+3)^0,w,c
  4761  000A46  6E48               	movwf	i2___flmul@bexp^0,c
  4762  000A48  AE38               	btfss	(i2___flmul@b+2)^0,7,c
  4763  000A4A  EF29  F005         	goto	i2u269_41
  4764  000A4E  EF2B  F005         	goto	i2u269_40
  4765  000A52                     i2u269_41:
  4766  000A52  EF2C  F005         	goto	i2l2597
  4767  000A56                     i2u269_40:
  4768  000A56  8048               	bsf	i2___flmul@bexp^0,0,c
  4769  000A58                     i2l2597:
  4770  000A58  5048               	movf	i2___flmul@bexp^0,w,c
  4771  000A5A  B4D8               	btfsc	status,2,c
  4772  000A5C  EF32  F005         	goto	i2u270_41
  4773  000A60  EF34  F005         	goto	i2u270_40
  4774  000A64                     i2u270_41:
  4775  000A64  EF47  F005         	goto	i2l2605
  4776  000A68                     i2u270_40:
  4777  000A68  2848               	incf	i2___flmul@bexp^0,w,c
  4778  000A6A  A4D8               	btfss	status,2,c
  4779  000A6C  EF3A  F005         	goto	i2u271_41
  4780  000A70  EF3C  F005         	goto	i2u271_40
  4781  000A74                     i2u271_41:
  4782  000A74  EF44  F005         	goto	i2l2603
  4783  000A78                     i2u271_40:
  4784  000A78  0E00               	movlw	0
  4785  000A7A  6E36               	movwf	i2___flmul@b^0,c
  4786  000A7C  0E00               	movlw	0
  4787  000A7E  6E37               	movwf	(i2___flmul@b+1)^0,c
  4788  000A80  0E00               	movlw	0
  4789  000A82  6E38               	movwf	(i2___flmul@b+2)^0,c
  4790  000A84  0E00               	movlw	0
  4791  000A86  6E39               	movwf	(i2___flmul@b+3)^0,c
  4792  000A88                     i2l2603:
  4793  000A88  8E38               	bsf	(i2___flmul@b+2)^0,7,c
  4794  000A8A  EF4F  F005         	goto	i2l2607
  4795  000A8E                     i2l2605:
  4796  000A8E  0E00               	movlw	0
  4797  000A90  6E36               	movwf	i2___flmul@b^0,c
  4798  000A92  0E00               	movlw	0
  4799  000A94  6E37               	movwf	(i2___flmul@b+1)^0,c
  4800  000A96  0E00               	movlw	0
  4801  000A98  6E38               	movwf	(i2___flmul@b+2)^0,c
  4802  000A9A  0E00               	movlw	0
  4803  000A9C  6E39               	movwf	(i2___flmul@b+3)^0,c
  4804  000A9E                     i2l2607:
  4805  000A9E  503D               	movf	(i2___flmul@a+3)^0,w,c
  4806  000AA0  0B80               	andlw	128
  4807  000AA2  1A42               	xorwf	i2___flmul@sign^0,f,c
  4808  000AA4  503D               	movf	(i2___flmul@a+3)^0,w,c
  4809  000AA6  243D               	addwf	(i2___flmul@a+3)^0,w,c
  4810  000AA8  6E47               	movwf	i2___flmul@aexp^0,c
  4811  000AAA  AE3C               	btfss	(i2___flmul@a+2)^0,7,c
  4812  000AAC  EF5A  F005         	goto	i2u272_41
  4813  000AB0  EF5C  F005         	goto	i2u272_40
  4814  000AB4                     i2u272_41:
  4815  000AB4  EF5D  F005         	goto	i2l2615
  4816  000AB8                     i2u272_40:
  4817  000AB8  8047               	bsf	i2___flmul@aexp^0,0,c
  4818  000ABA                     i2l2615:
  4819  000ABA  5047               	movf	i2___flmul@aexp^0,w,c
  4820  000ABC  B4D8               	btfsc	status,2,c
  4821  000ABE  EF63  F005         	goto	i2u273_41
  4822  000AC2  EF65  F005         	goto	i2u273_40
  4823  000AC6                     i2u273_41:
  4824  000AC6  EF78  F005         	goto	i2l2623
  4825  000ACA                     i2u273_40:
  4826  000ACA  2847               	incf	i2___flmul@aexp^0,w,c
  4827  000ACC  A4D8               	btfss	status,2,c
  4828  000ACE  EF6B  F005         	goto	i2u274_41
  4829  000AD2  EF6D  F005         	goto	i2u274_40
  4830  000AD6                     i2u274_41:
  4831  000AD6  EF75  F005         	goto	i2l2621
  4832  000ADA                     i2u274_40:
  4833  000ADA  0E00               	movlw	0
  4834  000ADC  6E3A               	movwf	i2___flmul@a^0,c
  4835  000ADE  0E00               	movlw	0
  4836  000AE0  6E3B               	movwf	(i2___flmul@a+1)^0,c
  4837  000AE2  0E00               	movlw	0
  4838  000AE4  6E3C               	movwf	(i2___flmul@a+2)^0,c
  4839  000AE6  0E00               	movlw	0
  4840  000AE8  6E3D               	movwf	(i2___flmul@a+3)^0,c
  4841  000AEA                     i2l2621:
  4842  000AEA  8E3C               	bsf	(i2___flmul@a+2)^0,7,c
  4843  000AEC  EF80  F005         	goto	i2l762
  4844  000AF0                     i2l2623:
  4845  000AF0  0E00               	movlw	0
  4846  000AF2  6E3A               	movwf	i2___flmul@a^0,c
  4847  000AF4  0E00               	movlw	0
  4848  000AF6  6E3B               	movwf	(i2___flmul@a+1)^0,c
  4849  000AF8  0E00               	movlw	0
  4850  000AFA  6E3C               	movwf	(i2___flmul@a+2)^0,c
  4851  000AFC  0E00               	movlw	0
  4852  000AFE  6E3D               	movwf	(i2___flmul@a+3)^0,c
  4853  000B00                     i2l762:
  4854  000B00  5047               	movf	i2___flmul@aexp^0,w,c
  4855  000B02  B4D8               	btfsc	status,2,c
  4856  000B04  EF86  F005         	goto	i2u275_41
  4857  000B08  EF88  F005         	goto	i2u275_40
  4858  000B0C                     i2u275_41:
  4859  000B0C  EF90  F005         	goto	i2l2627
  4860  000B10                     i2u275_40:
  4861  000B10  5048               	movf	i2___flmul@bexp^0,w,c
  4862  000B12  A4D8               	btfss	status,2,c
  4863  000B14  EF8E  F005         	goto	i2u276_41
  4864  000B18  EF90  F005         	goto	i2u276_40
  4865  000B1C                     i2u276_41:
  4866  000B1C  EF9A  F005         	goto	i2l2631
  4867  000B20                     i2u276_40:
  4868  000B20                     i2l2627:
  4869  000B20  0E00               	movlw	0
  4870  000B22  6E36               	movwf	?i2___flmul^0,c
  4871  000B24  0E00               	movlw	0
  4872  000B26  6E37               	movwf	(?i2___flmul+1)^0,c
  4873  000B28  0E00               	movlw	0
  4874  000B2A  6E38               	movwf	(?i2___flmul+2)^0,c
  4875  000B2C  0E00               	movlw	0
  4876  000B2E  6E39               	movwf	(?i2___flmul+3)^0,c
  4877  000B30  EF32  F007         	goto	i2l766
  4878  000B34                     i2l2631:
  4879  000B34  503C               	movf	(i2___flmul@a+2)^0,w,c
  4880  000B36  0236               	mulwf	i2___flmul@b^0,c
  4881  000B38  CFF3 F04D          	movff	prodl,i2___flmul@temp
  4882  000B3C  CFF4 F04E          	movff	prodh,i2___flmul@temp+1
  4883  000B40  504D               	movf	i2___flmul@temp^0,w,c
  4884  000B42  6E43               	movwf	i2___flmul@grs^0,c
  4885  000B44  6A44               	clrf	(i2___flmul@grs+1)^0,c
  4886  000B46  6A45               	clrf	(i2___flmul@grs+2)^0,c
  4887  000B48  6A46               	clrf	(i2___flmul@grs+3)^0,c
  4888  000B4A  504E               	movf	(i2___flmul@temp+1)^0,w,c
  4889  000B4C  6E49               	movwf	i2___flmul@prod^0,c
  4890  000B4E  6A4A               	clrf	(i2___flmul@prod+1)^0,c
  4891  000B50  6A4B               	clrf	(i2___flmul@prod+2)^0,c
  4892  000B52  6A4C               	clrf	(i2___flmul@prod+3)^0,c
  4893  000B54  503B               	movf	(i2___flmul@a+1)^0,w,c
  4894  000B56  0237               	mulwf	(i2___flmul@b+1)^0,c
  4895  000B58  CFF3 F04D          	movff	prodl,i2___flmul@temp
  4896  000B5C  CFF4 F04E          	movff	prodh,i2___flmul@temp+1
  4897  000B60  504D               	movf	i2___flmul@temp^0,w,c
  4898  000B62  2643               	addwf	i2___flmul@grs^0,f,c
  4899  000B64  0E00               	movlw	0
  4900  000B66  2244               	addwfc	(i2___flmul@grs+1)^0,f,c
  4901  000B68  2245               	addwfc	(i2___flmul@grs+2)^0,f,c
  4902  000B6A  2246               	addwfc	(i2___flmul@grs+3)^0,f,c
  4903  000B6C  504E               	movf	(i2___flmul@temp+1)^0,w,c
  4904  000B6E  2649               	addwf	i2___flmul@prod^0,f,c
  4905  000B70  0E00               	movlw	0
  4906  000B72  224A               	addwfc	(i2___flmul@prod+1)^0,f,c
  4907  000B74  224B               	addwfc	(i2___flmul@prod+2)^0,f,c
  4908  000B76  224C               	addwfc	(i2___flmul@prod+3)^0,f,c
  4909  000B78  503A               	movf	i2___flmul@a^0,w,c
  4910  000B7A  0238               	mulwf	(i2___flmul@b+2)^0,c
  4911  000B7C  CFF3 F04D          	movff	prodl,i2___flmul@temp
  4912  000B80  CFF4 F04E          	movff	prodh,i2___flmul@temp+1
  4913  000B84  504D               	movf	i2___flmul@temp^0,w,c
  4914  000B86  2643               	addwf	i2___flmul@grs^0,f,c
  4915  000B88  0E00               	movlw	0
  4916  000B8A  2244               	addwfc	(i2___flmul@grs+1)^0,f,c
  4917  000B8C  2245               	addwfc	(i2___flmul@grs+2)^0,f,c
  4918  000B8E  2246               	addwfc	(i2___flmul@grs+3)^0,f,c
  4919  000B90  504E               	movf	(i2___flmul@temp+1)^0,w,c
  4920  000B92  2649               	addwf	i2___flmul@prod^0,f,c
  4921  000B94  0E00               	movlw	0
  4922  000B96  224A               	addwfc	(i2___flmul@prod+1)^0,f,c
  4923  000B98  224B               	addwfc	(i2___flmul@prod+2)^0,f,c
  4924  000B9A  224C               	addwfc	(i2___flmul@prod+3)^0,f,c
  4925  000B9C  C045  F046         	movff	i2___flmul@grs+2,i2___flmul@grs+3
  4926  000BA0  C044  F045         	movff	i2___flmul@grs+1,i2___flmul@grs+2
  4927  000BA4  C043  F044         	movff	i2___flmul@grs,i2___flmul@grs+1
  4928  000BA8  6A43               	clrf	i2___flmul@grs^0,c
  4929  000BAA  503A               	movf	i2___flmul@a^0,w,c
  4930  000BAC  0237               	mulwf	(i2___flmul@b+1)^0,c
  4931  000BAE  CFF3 F04D          	movff	prodl,i2___flmul@temp
  4932  000BB2  CFF4 F04E          	movff	prodh,i2___flmul@temp+1
  4933  000BB6  504D               	movf	i2___flmul@temp^0,w,c
  4934  000BB8  2643               	addwf	i2___flmul@grs^0,f,c
  4935  000BBA  504E               	movf	(i2___flmul@temp+1)^0,w,c
  4936  000BBC  2244               	addwfc	(i2___flmul@grs+1)^0,f,c
  4937  000BBE  0E00               	movlw	0
  4938  000BC0  2245               	addwfc	(i2___flmul@grs+2)^0,f,c
  4939  000BC2  0E00               	movlw	0
  4940  000BC4  2246               	addwfc	(i2___flmul@grs+3)^0,f,c
  4941  000BC6  503B               	movf	(i2___flmul@a+1)^0,w,c
  4942  000BC8  0236               	mulwf	i2___flmul@b^0,c
  4943  000BCA  CFF3 F04D          	movff	prodl,i2___flmul@temp
  4944  000BCE  CFF4 F04E          	movff	prodh,i2___flmul@temp+1
  4945  000BD2  504D               	movf	i2___flmul@temp^0,w,c
  4946  000BD4  2643               	addwf	i2___flmul@grs^0,f,c
  4947  000BD6  504E               	movf	(i2___flmul@temp+1)^0,w,c
  4948  000BD8  2244               	addwfc	(i2___flmul@grs+1)^0,f,c
  4949  000BDA  0E00               	movlw	0
  4950  000BDC  2245               	addwfc	(i2___flmul@grs+2)^0,f,c
  4951  000BDE  0E00               	movlw	0
  4952  000BE0  2246               	addwfc	(i2___flmul@grs+3)^0,f,c
  4953  000BE2  C045  F046         	movff	i2___flmul@grs+2,i2___flmul@grs+3
  4954  000BE6  C044  F045         	movff	i2___flmul@grs+1,i2___flmul@grs+2
  4955  000BEA  C043  F044         	movff	i2___flmul@grs,i2___flmul@grs+1
  4956  000BEE  6A43               	clrf	i2___flmul@grs^0,c
  4957  000BF0  503A               	movf	i2___flmul@a^0,w,c
  4958  000BF2  0236               	mulwf	i2___flmul@b^0,c
  4959  000BF4  CFF3 F04D          	movff	prodl,i2___flmul@temp
  4960  000BF8  CFF4 F04E          	movff	prodh,i2___flmul@temp+1
  4961  000BFC  504D               	movf	i2___flmul@temp^0,w,c
  4962  000BFE  2643               	addwf	i2___flmul@grs^0,f,c
  4963  000C00  504E               	movf	(i2___flmul@temp+1)^0,w,c
  4964  000C02  2244               	addwfc	(i2___flmul@grs+1)^0,f,c
  4965  000C04  0E00               	movlw	0
  4966  000C06  2245               	addwfc	(i2___flmul@grs+2)^0,f,c
  4967  000C08  0E00               	movlw	0
  4968  000C0A  2246               	addwfc	(i2___flmul@grs+3)^0,f,c
  4969  000C0C  503C               	movf	(i2___flmul@a+2)^0,w,c
  4970  000C0E  0237               	mulwf	(i2___flmul@b+1)^0,c
  4971  000C10  CFF3 F04D          	movff	prodl,i2___flmul@temp
  4972  000C14  CFF4 F04E          	movff	prodh,i2___flmul@temp+1
  4973  000C18  504D               	movf	i2___flmul@temp^0,w,c
  4974  000C1A  2649               	addwf	i2___flmul@prod^0,f,c
  4975  000C1C  504E               	movf	(i2___flmul@temp+1)^0,w,c
  4976  000C1E  224A               	addwfc	(i2___flmul@prod+1)^0,f,c
  4977  000C20  0E00               	movlw	0
  4978  000C22  224B               	addwfc	(i2___flmul@prod+2)^0,f,c
  4979  000C24  0E00               	movlw	0
  4980  000C26  224C               	addwfc	(i2___flmul@prod+3)^0,f,c
  4981  000C28  503B               	movf	(i2___flmul@a+1)^0,w,c
  4982  000C2A  0238               	mulwf	(i2___flmul@b+2)^0,c
  4983  000C2C  CFF3 F04D          	movff	prodl,i2___flmul@temp
  4984  000C30  CFF4 F04E          	movff	prodh,i2___flmul@temp+1
  4985  000C34  504D               	movf	i2___flmul@temp^0,w,c
  4986  000C36  2649               	addwf	i2___flmul@prod^0,f,c
  4987  000C38  504E               	movf	(i2___flmul@temp+1)^0,w,c
  4988  000C3A  224A               	addwfc	(i2___flmul@prod+1)^0,f,c
  4989  000C3C  0E00               	movlw	0
  4990  000C3E  224B               	addwfc	(i2___flmul@prod+2)^0,f,c
  4991  000C40  0E00               	movlw	0
  4992  000C42  224C               	addwfc	(i2___flmul@prod+3)^0,f,c
  4993  000C44  503C               	movf	(i2___flmul@a+2)^0,w,c
  4994  000C46  0238               	mulwf	(i2___flmul@b+2)^0,c
  4995  000C48  CFF3 F04D          	movff	prodl,i2___flmul@temp
  4996  000C4C  CFF4 F04E          	movff	prodh,i2___flmul@temp+1
  4997  000C50  504D               	movf	i2___flmul@temp^0,w,c
  4998  000C52  6E3E               	movwf	??i2___flmul^0,c
  4999  000C54  504E               	movf	(i2___flmul@temp+1)^0,w,c
  5000  000C56  6E3F               	movwf	(??i2___flmul+1)^0,c
  5001  000C58  6A40               	clrf	(??i2___flmul+2)^0,c
  5002  000C5A  6A41               	clrf	(??i2___flmul+3)^0,c
  5003  000C5C  C040  F041         	movff	??i2___flmul+2,??i2___flmul+3
  5004  000C60  C03F  F040         	movff	??i2___flmul+1,??i2___flmul+2
  5005  000C64  C03E  F03F         	movff	??i2___flmul,??i2___flmul+1
  5006  000C68  6A3E               	clrf	??i2___flmul^0,c
  5007  000C6A  503E               	movf	??i2___flmul^0,w,c
  5008  000C6C  2649               	addwf	i2___flmul@prod^0,f,c
  5009  000C6E  503F               	movf	(??i2___flmul+1)^0,w,c
  5010  000C70  224A               	addwfc	(i2___flmul@prod+1)^0,f,c
  5011  000C72  5040               	movf	(??i2___flmul+2)^0,w,c
  5012  000C74  224B               	addwfc	(i2___flmul@prod+2)^0,f,c
  5013  000C76  5041               	movf	(??i2___flmul+3)^0,w,c
  5014  000C78  224C               	addwfc	(i2___flmul@prod+3)^0,f,c
  5015  000C7A  C043  F03E         	movff	i2___flmul@grs,??i2___flmul
  5016  000C7E  C044  F03F         	movff	i2___flmul@grs+1,??i2___flmul+1
  5017  000C82  C045  F040         	movff	i2___flmul@grs+2,??i2___flmul+2
  5018  000C86  C046  F041         	movff	i2___flmul@grs+3,??i2___flmul+3
  5019  000C8A  0E19               	movlw	25
  5020  000C8C  EF4D  F006         	goto	i2u277_40
  5021  000C90                     i2u277_45:
  5022  000C90  90D8               	bcf	status,0,c
  5023  000C92  3241               	rrcf	(??i2___flmul+3)^0,f,c
  5024  000C94  3240               	rrcf	(??i2___flmul+2)^0,f,c
  5025  000C96  323F               	rrcf	(??i2___flmul+1)^0,f,c
  5026  000C98  323E               	rrcf	??i2___flmul^0,f,c
  5027  000C9A                     i2u277_40:
  5028  000C9A  2EE8               	decfsz	wreg,f,c
  5029  000C9C  EF48  F006         	goto	i2u277_45
  5030  000CA0  503E               	movf	??i2___flmul^0,w,c
  5031  000CA2  2649               	addwf	i2___flmul@prod^0,f,c
  5032  000CA4  503F               	movf	(??i2___flmul+1)^0,w,c
  5033  000CA6  224A               	addwfc	(i2___flmul@prod+1)^0,f,c
  5034  000CA8  5040               	movf	(??i2___flmul+2)^0,w,c
  5035  000CAA  224B               	addwfc	(i2___flmul@prod+2)^0,f,c
  5036  000CAC  5041               	movf	(??i2___flmul+3)^0,w,c
  5037  000CAE  224C               	addwfc	(i2___flmul@prod+3)^0,f,c
  5038  000CB0  C045  F046         	movff	i2___flmul@grs+2,i2___flmul@grs+3
  5039  000CB4  C044  F045         	movff	i2___flmul@grs+1,i2___flmul@grs+2
  5040  000CB8  C043  F044         	movff	i2___flmul@grs,i2___flmul@grs+1
  5041  000CBC  6A43               	clrf	i2___flmul@grs^0,c
  5042  000CBE  5047               	movf	i2___flmul@aexp^0,w,c
  5043  000CC0  C048  F03E         	movff	i2___flmul@bexp,??i2___flmul
  5044  000CC4  6A3F               	clrf	(??i2___flmul+1)^0,c
  5045  000CC6  263E               	addwf	??i2___flmul^0,f,c
  5046  000CC8  0E00               	movlw	0
  5047  000CCA  223F               	addwfc	(??i2___flmul+1)^0,f,c
  5048  000CCC  0E82               	movlw	130
  5049  000CCE  243E               	addwf	??i2___flmul^0,w,c
  5050  000CD0  6E4D               	movwf	i2___flmul@temp^0,c
  5051  000CD2  0EFF               	movlw	255
  5052  000CD4  203F               	addwfc	(??i2___flmul+1)^0,w,c
  5053  000CD6  6E4E               	movwf	(i2___flmul@temp+1)^0,c
  5054  000CD8  EF83  F006         	goto	i2l2679
  5055  000CDC                     i2l2673:
  5056  000CDC  90D8               	bcf	status,0,c
  5057  000CDE  3649               	rlcf	i2___flmul@prod^0,f,c
  5058  000CE0  364A               	rlcf	(i2___flmul@prod+1)^0,f,c
  5059  000CE2  364B               	rlcf	(i2___flmul@prod+2)^0,f,c
  5060  000CE4  364C               	rlcf	(i2___flmul@prod+3)^0,f,c
  5061  000CE6  AE46               	btfss	(i2___flmul@grs+3)^0,7,c
  5062  000CE8  EF78  F006         	goto	i2u278_41
  5063  000CEC  EF7A  F006         	goto	i2u278_40
  5064  000CF0                     i2u278_41:
  5065  000CF0  EF7B  F006         	goto	i2l769
  5066  000CF4                     i2u278_40:
  5067  000CF4  8049               	bsf	i2___flmul@prod^0,0,c
  5068  000CF6                     i2l769:
  5069  000CF6  90D8               	bcf	status,0,c
  5070  000CF8  3643               	rlcf	i2___flmul@grs^0,f,c
  5071  000CFA  3644               	rlcf	(i2___flmul@grs+1)^0,f,c
  5072  000CFC  3645               	rlcf	(i2___flmul@grs+2)^0,f,c
  5073  000CFE  3646               	rlcf	(i2___flmul@grs+3)^0,f,c
  5074  000D00  064D               	decf	i2___flmul@temp^0,f,c
  5075  000D02  A0D8               	btfss	status,0,c
  5076  000D04  064E               	decf	(i2___flmul@temp+1)^0,f,c
  5077  000D06                     i2l2679:
  5078  000D06  AE4B               	btfss	(i2___flmul@prod+2)^0,7,c
  5079  000D08  EF88  F006         	goto	i2u279_41
  5080  000D0C  EF8A  F006         	goto	i2u279_40
  5081  000D10                     i2u279_41:
  5082  000D10  EF6E  F006         	goto	i2l2673
  5083  000D14                     i2u279_40:
  5084  000D14  0E00               	movlw	0
  5085  000D16  6E47               	movwf	i2___flmul@aexp^0,c
  5086  000D18  AE46               	btfss	(i2___flmul@grs+3)^0,7,c
  5087  000D1A  EF91  F006         	goto	i2u280_41
  5088  000D1E  EF93  F006         	goto	i2u280_40
  5089  000D22                     i2u280_41:
  5090  000D22  EFB7  F006         	goto	i2l771
  5091  000D26                     i2u280_40:
  5092  000D26  0EFF               	movlw	255
  5093  000D28  1443               	andwf	i2___flmul@grs^0,w,c
  5094  000D2A  6E3E               	movwf	??i2___flmul^0,c
  5095  000D2C  0EFF               	movlw	255
  5096  000D2E  1444               	andwf	(i2___flmul@grs+1)^0,w,c
  5097  000D30  6E3F               	movwf	(??i2___flmul+1)^0,c
  5098  000D32  0EFF               	movlw	255
  5099  000D34  1445               	andwf	(i2___flmul@grs+2)^0,w,c
  5100  000D36  6E40               	movwf	(??i2___flmul+2)^0,c
  5101  000D38  0E7F               	movlw	127
  5102  000D3A  1446               	andwf	(i2___flmul@grs+3)^0,w,c
  5103  000D3C  6E41               	movwf	(??i2___flmul+3)^0,c
  5104  000D3E  503E               	movf	??i2___flmul^0,w,c
  5105  000D40  103F               	iorwf	(??i2___flmul+1)^0,w,c
  5106  000D42  1040               	iorwf	(??i2___flmul+2)^0,w,c
  5107  000D44  1041               	iorwf	(??i2___flmul+3)^0,w,c
  5108  000D46  B4D8               	btfsc	status,2,c
  5109  000D48  EFA8  F006         	goto	i2u281_41
  5110  000D4C  EFAA  F006         	goto	i2u281_40
  5111  000D50                     i2u281_41:
  5112  000D50  EFAE  F006         	goto	i2l772
  5113  000D54                     i2u281_40:
  5114  000D54                     i2l2687:
  5115  000D54  0E01               	movlw	1
  5116  000D56  6E47               	movwf	i2___flmul@aexp^0,c
  5117  000D58  EFB7  F006         	goto	i2l771
  5118  000D5C                     i2l772:
  5119  000D5C  A049               	btfss	i2___flmul@prod^0,0,c
  5120  000D5E  EFB3  F006         	goto	i2u282_41
  5121  000D62  EFB5  F006         	goto	i2u282_40
  5122  000D66                     i2u282_41:
  5123  000D66  EFB7  F006         	goto	i2l771
  5124  000D6A                     i2u282_40:
  5125  000D6A  EFAA  F006         	goto	i2l2687
  5126  000D6E                     i2l771:
  5127  000D6E  5047               	movf	i2___flmul@aexp^0,w,c
  5128  000D70  B4D8               	btfsc	status,2,c
  5129  000D72  EFBD  F006         	goto	i2u283_41
  5130  000D76  EFBF  F006         	goto	i2u283_40
  5131  000D7A                     i2u283_41:
  5132  000D7A  EFE3  F006         	goto	i2l2699
  5133  000D7E                     i2u283_40:
  5134  000D7E  0E01               	movlw	1
  5135  000D80  2649               	addwf	i2___flmul@prod^0,f,c
  5136  000D82  0E00               	movlw	0
  5137  000D84  224A               	addwfc	(i2___flmul@prod+1)^0,f,c
  5138  000D86  224B               	addwfc	(i2___flmul@prod+2)^0,f,c
  5139  000D88  224C               	addwfc	(i2___flmul@prod+3)^0,f,c
  5140  000D8A  A04C               	btfss	(i2___flmul@prod+3)^0,0,c
  5141  000D8C  EFCA  F006         	goto	i2u284_41
  5142  000D90  EFCC  F006         	goto	i2u284_40
  5143  000D94                     i2u284_41:
  5144  000D94  EFE3  F006         	goto	i2l2699
  5145  000D98                     i2u284_40:
  5146  000D98  C049  F03E         	movff	i2___flmul@prod,??i2___flmul
  5147  000D9C  C04A  F03F         	movff	i2___flmul@prod+1,??i2___flmul+1
  5148  000DA0  C04B  F040         	movff	i2___flmul@prod+2,??i2___flmul+2
  5149  000DA4  C04C  F041         	movff	i2___flmul@prod+3,??i2___flmul+3
  5150  000DA8  3441               	rlcf	(??i2___flmul+3)^0,w,c
  5151  000DAA  3241               	rrcf	(??i2___flmul+3)^0,f,c
  5152  000DAC  3240               	rrcf	(??i2___flmul+2)^0,f,c
  5153  000DAE  323F               	rrcf	(??i2___flmul+1)^0,f,c
  5154  000DB0  323E               	rrcf	??i2___flmul^0,f,c
  5155  000DB2  C03E  F049         	movff	??i2___flmul,i2___flmul@prod
  5156  000DB6  C03F  F04A         	movff	??i2___flmul+1,i2___flmul@prod+1
  5157  000DBA  C040  F04B         	movff	??i2___flmul+2,i2___flmul@prod+2
  5158  000DBE  C041  F04C         	movff	??i2___flmul+3,i2___flmul@prod+3
  5159  000DC2  4A4D               	infsnz	i2___flmul@temp^0,f,c
  5160  000DC4  2A4E               	incf	(i2___flmul@temp+1)^0,f,c
  5161  000DC6                     i2l2699:
  5162  000DC6  BE4E               	btfsc	(i2___flmul@temp+1)^0,7,c
  5163  000DC8  EFEE  F006         	goto	i2u285_41
  5164  000DCC  504E               	movf	(i2___flmul@temp+1)^0,w,c
  5165  000DCE  E108               	bnz	i2u285_40
  5166  000DD0  284D               	incf	i2___flmul@temp^0,w,c
  5167  000DD2  A0D8               	btfss	status,0,c
  5168  000DD4  EFEE  F006         	goto	i2u285_41
  5169  000DD8  EFF0  F006         	goto	i2u285_40
  5170  000DDC                     i2u285_41:
  5171  000DDC  EFFA  F006         	goto	i2l2703
  5172  000DE0                     i2u285_40:
  5173  000DE0  0E00               	movlw	0
  5174  000DE2  6E49               	movwf	i2___flmul@prod^0,c
  5175  000DE4  0E00               	movlw	0
  5176  000DE6  6E4A               	movwf	(i2___flmul@prod+1)^0,c
  5177  000DE8  0E80               	movlw	128
  5178  000DEA  6E4B               	movwf	(i2___flmul@prod+2)^0,c
  5179  000DEC  0E7F               	movlw	127
  5180  000DEE  6E4C               	movwf	(i2___flmul@prod+3)^0,c
  5181  000DF0  EF28  F007         	goto	i2l2715
  5182  000DF4                     i2l2703:
  5183  000DF4  BE4E               	btfsc	(i2___flmul@temp+1)^0,7,c
  5184  000DF6  EF07  F007         	goto	i2u286_40
  5185  000DFA  504E               	movf	(i2___flmul@temp+1)^0,w,c
  5186  000DFC  E106               	bnz	i2u286_41
  5187  000DFE  044D               	decf	i2___flmul@temp^0,w,c
  5188  000E00  B0D8               	btfsc	status,0,c
  5189  000E02  EF05  F007         	goto	i2u286_41
  5190  000E06  EF07  F007         	goto	i2u286_40
  5191  000E0A                     i2u286_41:
  5192  000E0A  EF13  F007         	goto	i2l779
  5193  000E0E                     i2u286_40:
  5194  000E0E  0E00               	movlw	0
  5195  000E10  6E49               	movwf	i2___flmul@prod^0,c
  5196  000E12  0E00               	movlw	0
  5197  000E14  6E4A               	movwf	(i2___flmul@prod+1)^0,c
  5198  000E16  0E00               	movlw	0
  5199  000E18  6E4B               	movwf	(i2___flmul@prod+2)^0,c
  5200  000E1A  0E00               	movlw	0
  5201  000E1C  6E4C               	movwf	(i2___flmul@prod+3)^0,c
  5202  000E1E  0E00               	movlw	0
  5203  000E20  6E42               	movwf	i2___flmul@sign^0,c
  5204  000E22  EF28  F007         	goto	i2l2715
  5205  000E26                     i2l779:
  5206  000E26  C04D  F048         	movff	i2___flmul@temp,i2___flmul@bexp
  5207  000E2A  0EFF               	movlw	255
  5208  000E2C  1649               	andwf	i2___flmul@prod^0,f,c
  5209  000E2E  0EFF               	movlw	255
  5210  000E30  164A               	andwf	(i2___flmul@prod+1)^0,f,c
  5211  000E32  0E7F               	movlw	127
  5212  000E34  164B               	andwf	(i2___flmul@prod+2)^0,f,c
  5213  000E36  0E00               	movlw	0
  5214  000E38  164C               	andwf	(i2___flmul@prod+3)^0,f,c
  5215  000E3A  A048               	btfss	i2___flmul@bexp^0,0,c
  5216  000E3C  EF22  F007         	goto	i2u287_41
  5217  000E40  EF24  F007         	goto	i2u287_40
  5218  000E44                     i2u287_41:
  5219  000E44  EF25  F007         	goto	i2l2713
  5220  000E48                     i2u287_40:
  5221  000E48  8E4B               	bsf	(i2___flmul@prod+2)^0,7,c
  5222  000E4A                     i2l2713:
  5223  000E4A  90D8               	bcf	status,0,c
  5224  000E4C  3048               	rrcf	i2___flmul@bexp^0,w,c
  5225  000E4E  6E4C               	movwf	(i2___flmul@prod+3)^0,c
  5226  000E50                     i2l2715:
  5227  000E50  5042               	movf	i2___flmul@sign^0,w,c
  5228  000E52  124C               	iorwf	(i2___flmul@prod+3)^0,f,c
  5229  000E54  C049  F036         	movff	i2___flmul@prod,?i2___flmul
  5230  000E58  C04A  F037         	movff	i2___flmul@prod+1,?i2___flmul+1
  5231  000E5C  C04B  F038         	movff	i2___flmul@prod+2,?i2___flmul+2
  5232  000E60  C04C  F039         	movff	i2___flmul@prod+3,?i2___flmul+3
  5233  000E64                     i2l766:
  5234  000E64  0012               	return		;funcret
  5235  000E66                     __end_ofi2___flmul:
  5236                           	callstack 0
  5237                           
  5238 ;; *************** function i2___fldiv *****************
  5239 ;; Defined at:
  5240 ;;		line 11 in file "C:\Program Files\Microchip\xc8\v2.32\pic\sources\c99\common\sprcdiv.c"
  5241 ;; Parameters:    Size  Location     Type
  5242 ;;  b               4   28[COMRAM] unsigned char 
  5243 ;;  a               4   32[COMRAM] unsigned char 
  5244 ;; Auto vars:     Size  Location     Type
  5245 ;;  grs             4   47[COMRAM] unsigned long 
  5246 ;;  rem             4   40[COMRAM] unsigned long 
  5247 ;;  new_exp         2   45[COMRAM] short 
  5248 ;;  aexp            1   52[COMRAM] unsigned char 
  5249 ;;  bexp            1   51[COMRAM] unsigned char 
  5250 ;;  sign            1   44[COMRAM] unsigned char 
  5251 ;; Return value:  Size  Location     Type
  5252 ;;                  4   28[COMRAM] unsigned char 
  5253 ;; Registers used:
  5254 ;;		wreg, status,2, status,0
  5255 ;; Tracked objects:
  5256 ;;		On entry : 0/0
  5257 ;;		On exit  : 0/0
  5258 ;;		Unchanged: 0/0
  5259 ;; Data sizes:     COMRAM   BANK0   BANK1   BANK2   BANK3   BANK4   BANK5
  5260 ;;      Params:         8       0       0       0       0       0       0
  5261 ;;      Locals:        13       0       0       0       0       0       0
  5262 ;;      Temps:          4       0       0       0       0       0       0
  5263 ;;      Totals:        25       0       0       0       0       0       0
  5264 ;;Total ram usage:       25 bytes
  5265 ;; Hardware stack levels used: 1
  5266 ;; This function calls:
  5267 ;;		Nothing
  5268 ;; This function is called by:
  5269 ;;		i2_PWM1_Duty
  5270 ;; This function uses a non-reentrant model
  5271 ;;
  5272                           
  5273                           	psect	text23
  5274  001202                     __ptext23:
  5275                           	callstack 0
  5276  001202                     i2___fldiv:
  5277                           	callstack 26
  5278  001202  5020               	movf	(i2___fldiv@b+3)^0,w,c
  5279  001204  0B80               	andlw	128
  5280  001206  6E2D               	movwf	i2___fldiv@sign^0,c
  5281  001208  5020               	movf	(i2___fldiv@b+3)^0,w,c
  5282  00120A  2420               	addwf	(i2___fldiv@b+3)^0,w,c
  5283  00120C  6E34               	movwf	i2___fldiv@bexp^0,c
  5284  00120E  AE1F               	btfss	(i2___fldiv@b+2)^0,7,c
  5285  001210  EF0C  F009         	goto	i2u246_41
  5286  001214  EF0E  F009         	goto	i2u246_40
  5287  001218                     i2u246_41:
  5288  001218  EF0F  F009         	goto	i2l2459
  5289  00121C                     i2u246_40:
  5290  00121C  8034               	bsf	i2___fldiv@bexp^0,0,c
  5291  00121E                     i2l2459:
  5292  00121E  5034               	movf	i2___fldiv@bexp^0,w,c
  5293  001220  B4D8               	btfsc	status,2,c
  5294  001222  EF15  F009         	goto	i2u247_41
  5295  001226  EF17  F009         	goto	i2u247_40
  5296  00122A                     i2u247_41:
  5297  00122A  EF2C  F009         	goto	i2l2469
  5298  00122E                     i2u247_40:
  5299  00122E  2834               	incf	i2___fldiv@bexp^0,w,c
  5300  001230  A4D8               	btfss	status,2,c
  5301  001232  EF1D  F009         	goto	i2u248_41
  5302  001236  EF1F  F009         	goto	i2u248_40
  5303  00123A                     i2u248_41:
  5304  00123A  EF27  F009         	goto	i2l2465
  5305  00123E                     i2u248_40:
  5306  00123E  0E00               	movlw	0
  5307  001240  6E1D               	movwf	i2___fldiv@b^0,c
  5308  001242  0E00               	movlw	0
  5309  001244  6E1E               	movwf	(i2___fldiv@b+1)^0,c
  5310  001246  0E00               	movlw	0
  5311  001248  6E1F               	movwf	(i2___fldiv@b+2)^0,c
  5312  00124A  0E00               	movlw	0
  5313  00124C  6E20               	movwf	(i2___fldiv@b+3)^0,c
  5314  00124E                     i2l2465:
  5315  00124E  8E1F               	bsf	(i2___fldiv@b+2)^0,7,c
  5316  001250  0E00               	movlw	0
  5317  001252  6E20               	movwf	(i2___fldiv@b+3)^0,c
  5318  001254  EF34  F009         	goto	i2l2471
  5319  001258                     i2l2469:
  5320  001258  0E00               	movlw	0
  5321  00125A  6E1D               	movwf	i2___fldiv@b^0,c
  5322  00125C  0E00               	movlw	0
  5323  00125E  6E1E               	movwf	(i2___fldiv@b+1)^0,c
  5324  001260  0E00               	movlw	0
  5325  001262  6E1F               	movwf	(i2___fldiv@b+2)^0,c
  5326  001264  0E00               	movlw	0
  5327  001266  6E20               	movwf	(i2___fldiv@b+3)^0,c
  5328  001268                     i2l2471:
  5329  001268  5024               	movf	(i2___fldiv@a+3)^0,w,c
  5330  00126A  0B80               	andlw	128
  5331  00126C  1A2D               	xorwf	i2___fldiv@sign^0,f,c
  5332  00126E  5024               	movf	(i2___fldiv@a+3)^0,w,c
  5333  001270  2424               	addwf	(i2___fldiv@a+3)^0,w,c
  5334  001272  6E35               	movwf	i2___fldiv@aexp^0,c
  5335  001274  AE23               	btfss	(i2___fldiv@a+2)^0,7,c
  5336  001276  EF3F  F009         	goto	i2u249_41
  5337  00127A  EF41  F009         	goto	i2u249_40
  5338  00127E                     i2u249_41:
  5339  00127E  EF42  F009         	goto	i2l2479
  5340  001282                     i2u249_40:
  5341  001282  8035               	bsf	i2___fldiv@aexp^0,0,c
  5342  001284                     i2l2479:
  5343  001284  5035               	movf	i2___fldiv@aexp^0,w,c
  5344  001286  B4D8               	btfsc	status,2,c
  5345  001288  EF48  F009         	goto	i2u250_41
  5346  00128C  EF4A  F009         	goto	i2u250_40
  5347  001290                     i2u250_41:
  5348  001290  EF5F  F009         	goto	i2l2489
  5349  001294                     i2u250_40:
  5350  001294  2835               	incf	i2___fldiv@aexp^0,w,c
  5351  001296  A4D8               	btfss	status,2,c
  5352  001298  EF50  F009         	goto	i2u251_41
  5353  00129C  EF52  F009         	goto	i2u251_40
  5354  0012A0                     i2u251_41:
  5355  0012A0  EF5A  F009         	goto	i2l2485
  5356  0012A4                     i2u251_40:
  5357  0012A4  0E00               	movlw	0
  5358  0012A6  6E21               	movwf	i2___fldiv@a^0,c
  5359  0012A8  0E00               	movlw	0
  5360  0012AA  6E22               	movwf	(i2___fldiv@a+1)^0,c
  5361  0012AC  0E00               	movlw	0
  5362  0012AE  6E23               	movwf	(i2___fldiv@a+2)^0,c
  5363  0012B0  0E00               	movlw	0
  5364  0012B2  6E24               	movwf	(i2___fldiv@a+3)^0,c
  5365  0012B4                     i2l2485:
  5366  0012B4  8E23               	bsf	(i2___fldiv@a+2)^0,7,c
  5367  0012B6  0E00               	movlw	0
  5368  0012B8  6E24               	movwf	(i2___fldiv@a+3)^0,c
  5369  0012BA  EF67  F009         	goto	i2l2491
  5370  0012BE                     i2l2489:
  5371  0012BE  0E00               	movlw	0
  5372  0012C0  6E21               	movwf	i2___fldiv@a^0,c
  5373  0012C2  0E00               	movlw	0
  5374  0012C4  6E22               	movwf	(i2___fldiv@a+1)^0,c
  5375  0012C6  0E00               	movlw	0
  5376  0012C8  6E23               	movwf	(i2___fldiv@a+2)^0,c
  5377  0012CA  0E00               	movlw	0
  5378  0012CC  6E24               	movwf	(i2___fldiv@a+3)^0,c
  5379  0012CE                     i2l2491:
  5380  0012CE  5021               	movf	i2___fldiv@a^0,w,c
  5381  0012D0  1022               	iorwf	(i2___fldiv@a+1)^0,w,c
  5382  0012D2  1023               	iorwf	(i2___fldiv@a+2)^0,w,c
  5383  0012D4  1024               	iorwf	(i2___fldiv@a+3)^0,w,c
  5384  0012D6  A4D8               	btfss	status,2,c
  5385  0012D8  EF70  F009         	goto	i2u252_41
  5386  0012DC  EF72  F009         	goto	i2u252_40
  5387  0012E0                     i2u252_41:
  5388  0012E0  EF8A  F009         	goto	i2l2503
  5389  0012E4                     i2u252_40:
  5390  0012E4  0E00               	movlw	0
  5391  0012E6  6E1D               	movwf	i2___fldiv@b^0,c
  5392  0012E8  0E00               	movlw	0
  5393  0012EA  6E1E               	movwf	(i2___fldiv@b+1)^0,c
  5394  0012EC  0E00               	movlw	0
  5395  0012EE  6E1F               	movwf	(i2___fldiv@b+2)^0,c
  5396  0012F0  0E00               	movlw	0
  5397  0012F2  6E20               	movwf	(i2___fldiv@b+3)^0,c
  5398  0012F4  0E80               	movlw	128
  5399  0012F6  121F               	iorwf	(i2___fldiv@b+2)^0,f,c
  5400  0012F8  0E7F               	movlw	127
  5401  0012FA  1220               	iorwf	(i2___fldiv@b+3)^0,f,c
  5402  0012FC                     i2l2497:
  5403  0012FC  502D               	movf	i2___fldiv@sign^0,w,c
  5404  0012FE  1220               	iorwf	(i2___fldiv@b+3)^0,f,c
  5405  001300  C01D  F01D         	movff	i2___fldiv@b,?i2___fldiv
  5406  001304  C01E  F01E         	movff	i2___fldiv@b+1,?i2___fldiv+1
  5407  001308  C01F  F01F         	movff	i2___fldiv@b+2,?i2___fldiv+2
  5408  00130C  C020  F020         	movff	i2___fldiv@b+3,?i2___fldiv+3
  5409  001310  EFCD  F00A         	goto	i2l730
  5410  001314                     i2l2503:
  5411  001314  5034               	movf	i2___fldiv@bexp^0,w,c
  5412  001316  A4D8               	btfss	status,2,c
  5413  001318  EF90  F009         	goto	i2u253_41
  5414  00131C  EF92  F009         	goto	i2u253_40
  5415  001320                     i2u253_41:
  5416  001320  EF9C  F009         	goto	i2l2511
  5417  001324                     i2u253_40:
  5418  001324  0E00               	movlw	0
  5419  001326  6E1D               	movwf	?i2___fldiv^0,c
  5420  001328  0E00               	movlw	0
  5421  00132A  6E1E               	movwf	(?i2___fldiv+1)^0,c
  5422  00132C  0E00               	movlw	0
  5423  00132E  6E1F               	movwf	(?i2___fldiv+2)^0,c
  5424  001330  0E00               	movlw	0
  5425  001332  6E20               	movwf	(?i2___fldiv+3)^0,c
  5426  001334  EFCD  F00A         	goto	i2l730
  5427  001338                     i2l2511:
  5428  001338  5035               	movf	i2___fldiv@aexp^0,w,c
  5429  00133A  C034  F025         	movff	i2___fldiv@bexp,??i2___fldiv
  5430  00133E  6A26               	clrf	(??i2___fldiv+1)^0,c
  5431  001340  5E25               	subwf	??i2___fldiv^0,f,c
  5432  001342  0E00               	movlw	0
  5433  001344  5A26               	subwfb	(??i2___fldiv+1)^0,f,c
  5434  001346  0E7F               	movlw	127
  5435  001348  2425               	addwf	??i2___fldiv^0,w,c
  5436  00134A  6E2E               	movwf	i2___fldiv@new_exp^0,c
  5437  00134C  0E00               	movlw	0
  5438  00134E  2026               	addwfc	(??i2___fldiv+1)^0,w,c
  5439  001350  6E2F               	movwf	(i2___fldiv@new_exp+1)^0,c
  5440  001352  C01D  F029         	movff	i2___fldiv@b,i2___fldiv@rem
  5441  001356  C01E  F02A         	movff	i2___fldiv@b+1,i2___fldiv@rem+1
  5442  00135A  C01F  F02B         	movff	i2___fldiv@b+2,i2___fldiv@rem+2
  5443  00135E  C020  F02C         	movff	i2___fldiv@b+3,i2___fldiv@rem+3
  5444  001362  0E00               	movlw	0
  5445  001364  6E1D               	movwf	i2___fldiv@b^0,c
  5446  001366  0E00               	movlw	0
  5447  001368  6E1E               	movwf	(i2___fldiv@b+1)^0,c
  5448  00136A  0E00               	movlw	0
  5449  00136C  6E1F               	movwf	(i2___fldiv@b+2)^0,c
  5450  00136E  0E00               	movlw	0
  5451  001370  6E20               	movwf	(i2___fldiv@b+3)^0,c
  5452  001372  0E00               	movlw	0
  5453  001374  6E30               	movwf	i2___fldiv@grs^0,c
  5454  001376  0E00               	movlw	0
  5455  001378  6E31               	movwf	(i2___fldiv@grs+1)^0,c
  5456  00137A  0E00               	movlw	0
  5457  00137C  6E32               	movwf	(i2___fldiv@grs+2)^0,c
  5458  00137E  0E00               	movlw	0
  5459  001380  6E33               	movwf	(i2___fldiv@grs+3)^0,c
  5460  001382  0E00               	movlw	0
  5461  001384  6E35               	movwf	i2___fldiv@aexp^0,c
  5462  001386  EFFD  F009         	goto	i2l732
  5463  00138A                     i2l2521:
  5464  00138A  5035               	movf	i2___fldiv@aexp^0,w,c
  5465  00138C  B4D8               	btfsc	status,2,c
  5466  00138E  EFCB  F009         	goto	i2u254_41
  5467  001392  EFCD  F009         	goto	i2u254_40
  5468  001396                     i2u254_41:
  5469  001396  EFE4  F009         	goto	i2l2529
  5470  00139A                     i2u254_40:
  5471  00139A  90D8               	bcf	status,0,c
  5472  00139C  3629               	rlcf	i2___fldiv@rem^0,f,c
  5473  00139E  362A               	rlcf	(i2___fldiv@rem+1)^0,f,c
  5474  0013A0  362B               	rlcf	(i2___fldiv@rem+2)^0,f,c
  5475  0013A2  362C               	rlcf	(i2___fldiv@rem+3)^0,f,c
  5476  0013A4  90D8               	bcf	status,0,c
  5477  0013A6  361D               	rlcf	i2___fldiv@b^0,f,c
  5478  0013A8  361E               	rlcf	(i2___fldiv@b+1)^0,f,c
  5479  0013AA  361F               	rlcf	(i2___fldiv@b+2)^0,f,c
  5480  0013AC  3620               	rlcf	(i2___fldiv@b+3)^0,f,c
  5481  0013AE  AE33               	btfss	(i2___fldiv@grs+3)^0,7,c
  5482  0013B0  EFDC  F009         	goto	i2u255_41
  5483  0013B4  EFDE  F009         	goto	i2u255_40
  5484  0013B8                     i2u255_41:
  5485  0013B8  EFDF  F009         	goto	i2l735
  5486  0013BC                     i2u255_40:
  5487  0013BC  801D               	bsf	i2___fldiv@b^0,0,c
  5488  0013BE                     i2l735:
  5489  0013BE  90D8               	bcf	status,0,c
  5490  0013C0  3630               	rlcf	i2___fldiv@grs^0,f,c
  5491  0013C2  3631               	rlcf	(i2___fldiv@grs+1)^0,f,c
  5492  0013C4  3632               	rlcf	(i2___fldiv@grs+2)^0,f,c
  5493  0013C6  3633               	rlcf	(i2___fldiv@grs+3)^0,f,c
  5494  0013C8                     i2l2529:
  5495  0013C8  5021               	movf	i2___fldiv@a^0,w,c
  5496  0013CA  5C29               	subwf	i2___fldiv@rem^0,w,c
  5497  0013CC  5022               	movf	(i2___fldiv@a+1)^0,w,c
  5498  0013CE  582A               	subwfb	(i2___fldiv@rem+1)^0,w,c
  5499  0013D0  5023               	movf	(i2___fldiv@a+2)^0,w,c
  5500  0013D2  582B               	subwfb	(i2___fldiv@rem+2)^0,w,c
  5501  0013D4  5024               	movf	(i2___fldiv@a+3)^0,w,c
  5502  0013D6  582C               	subwfb	(i2___fldiv@rem+3)^0,w,c
  5503  0013D8  A0D8               	btfss	status,0,c
  5504  0013DA  EFF1  F009         	goto	i2u256_41
  5505  0013DE  EFF3  F009         	goto	i2u256_40
  5506  0013E2                     i2u256_41:
  5507  0013E2  EFFC  F009         	goto	i2l2535
  5508  0013E6                     i2u256_40:
  5509  0013E6  8C33               	bsf	(i2___fldiv@grs+3)^0,6,c
  5510  0013E8  5021               	movf	i2___fldiv@a^0,w,c
  5511  0013EA  5E29               	subwf	i2___fldiv@rem^0,f,c
  5512  0013EC  5022               	movf	(i2___fldiv@a+1)^0,w,c
  5513  0013EE  5A2A               	subwfb	(i2___fldiv@rem+1)^0,f,c
  5514  0013F0  5023               	movf	(i2___fldiv@a+2)^0,w,c
  5515  0013F2  5A2B               	subwfb	(i2___fldiv@rem+2)^0,f,c
  5516  0013F4  5024               	movf	(i2___fldiv@a+3)^0,w,c
  5517  0013F6  5A2C               	subwfb	(i2___fldiv@rem+3)^0,f,c
  5518  0013F8                     i2l2535:
  5519  0013F8  2A35               	incf	i2___fldiv@aexp^0,f,c
  5520  0013FA                     i2l732:
  5521  0013FA  0E19               	movlw	25
  5522  0013FC  6435               	cpfsgt	i2___fldiv@aexp^0,c
  5523  0013FE  EF03  F00A         	goto	i2u257_41
  5524  001402  EF05  F00A         	goto	i2u257_40
  5525  001406                     i2u257_41:
  5526  001406  EFC5  F009         	goto	i2l2521
  5527  00140A                     i2u257_40:
  5528  00140A  5029               	movf	i2___fldiv@rem^0,w,c
  5529  00140C  102A               	iorwf	(i2___fldiv@rem+1)^0,w,c
  5530  00140E  102B               	iorwf	(i2___fldiv@rem+2)^0,w,c
  5531  001410  102C               	iorwf	(i2___fldiv@rem+3)^0,w,c
  5532  001412  B4D8               	btfsc	status,2,c
  5533  001414  EF0E  F00A         	goto	i2u258_41
  5534  001418  EF10  F00A         	goto	i2u258_40
  5535  00141C                     i2u258_41:
  5536  00141C  EF28  F00A         	goto	i2l2547
  5537  001420                     i2u258_40:
  5538  001420  8030               	bsf	i2___fldiv@grs^0,0,c
  5539  001422  EF28  F00A         	goto	i2l2547
  5540  001426                     i2l2541:
  5541  001426  90D8               	bcf	status,0,c
  5542  001428  361D               	rlcf	i2___fldiv@b^0,f,c
  5543  00142A  361E               	rlcf	(i2___fldiv@b+1)^0,f,c
  5544  00142C  361F               	rlcf	(i2___fldiv@b+2)^0,f,c
  5545  00142E  3620               	rlcf	(i2___fldiv@b+3)^0,f,c
  5546  001430  AE33               	btfss	(i2___fldiv@grs+3)^0,7,c
  5547  001432  EF1D  F00A         	goto	i2u259_41
  5548  001436  EF1F  F00A         	goto	i2u259_40
  5549  00143A                     i2u259_41:
  5550  00143A  EF20  F00A         	goto	i2l741
  5551  00143E                     i2u259_40:
  5552  00143E  801D               	bsf	i2___fldiv@b^0,0,c
  5553  001440                     i2l741:
  5554  001440  90D8               	bcf	status,0,c
  5555  001442  3630               	rlcf	i2___fldiv@grs^0,f,c
  5556  001444  3631               	rlcf	(i2___fldiv@grs+1)^0,f,c
  5557  001446  3632               	rlcf	(i2___fldiv@grs+2)^0,f,c
  5558  001448  3633               	rlcf	(i2___fldiv@grs+3)^0,f,c
  5559  00144A  062E               	decf	i2___fldiv@new_exp^0,f,c
  5560  00144C  A0D8               	btfss	status,0,c
  5561  00144E  062F               	decf	(i2___fldiv@new_exp+1)^0,f,c
  5562  001450                     i2l2547:
  5563  001450  AE1F               	btfss	(i2___fldiv@b+2)^0,7,c
  5564  001452  EF2D  F00A         	goto	i2u260_41
  5565  001456  EF2F  F00A         	goto	i2u260_40
  5566  00145A                     i2u260_41:
  5567  00145A  EF13  F00A         	goto	i2l2541
  5568  00145E                     i2u260_40:
  5569  00145E  0E00               	movlw	0
  5570  001460  6E35               	movwf	i2___fldiv@aexp^0,c
  5571  001462  AE33               	btfss	(i2___fldiv@grs+3)^0,7,c
  5572  001464  EF36  F00A         	goto	i2u261_41
  5573  001468  EF38  F00A         	goto	i2u261_40
  5574  00146C                     i2u261_41:
  5575  00146C  EF5C  F00A         	goto	i2l743
  5576  001470                     i2u261_40:
  5577  001470  0EFF               	movlw	255
  5578  001472  1430               	andwf	i2___fldiv@grs^0,w,c
  5579  001474  6E25               	movwf	??i2___fldiv^0,c
  5580  001476  0EFF               	movlw	255
  5581  001478  1431               	andwf	(i2___fldiv@grs+1)^0,w,c
  5582  00147A  6E26               	movwf	(??i2___fldiv+1)^0,c
  5583  00147C  0EFF               	movlw	255
  5584  00147E  1432               	andwf	(i2___fldiv@grs+2)^0,w,c
  5585  001480  6E27               	movwf	(??i2___fldiv+2)^0,c
  5586  001482  0E7F               	movlw	127
  5587  001484  1433               	andwf	(i2___fldiv@grs+3)^0,w,c
  5588  001486  6E28               	movwf	(??i2___fldiv+3)^0,c
  5589  001488  5025               	movf	??i2___fldiv^0,w,c
  5590  00148A  1026               	iorwf	(??i2___fldiv+1)^0,w,c
  5591  00148C  1027               	iorwf	(??i2___fldiv+2)^0,w,c
  5592  00148E  1028               	iorwf	(??i2___fldiv+3)^0,w,c
  5593  001490  B4D8               	btfsc	status,2,c
  5594  001492  EF4D  F00A         	goto	i2u262_41
  5595  001496  EF4F  F00A         	goto	i2u262_40
  5596  00149A                     i2u262_41:
  5597  00149A  EF53  F00A         	goto	i2l744
  5598  00149E                     i2u262_40:
  5599  00149E                     i2l2555:
  5600  00149E  0E01               	movlw	1
  5601  0014A0  6E35               	movwf	i2___fldiv@aexp^0,c
  5602  0014A2  EF5C  F00A         	goto	i2l743
  5603  0014A6                     i2l744:
  5604  0014A6  A01D               	btfss	i2___fldiv@b^0,0,c
  5605  0014A8  EF58  F00A         	goto	i2u263_41
  5606  0014AC  EF5A  F00A         	goto	i2u263_40
  5607  0014B0                     i2u263_41:
  5608  0014B0  EF5C  F00A         	goto	i2l743
  5609  0014B4                     i2u263_40:
  5610  0014B4  EF4F  F00A         	goto	i2l2555
  5611  0014B8                     i2l743:
  5612  0014B8  5035               	movf	i2___fldiv@aexp^0,w,c
  5613  0014BA  B4D8               	btfsc	status,2,c
  5614  0014BC  EF62  F00A         	goto	i2u264_41
  5615  0014C0  EF64  F00A         	goto	i2u264_40
  5616  0014C4                     i2u264_41:
  5617  0014C4  EF88  F00A         	goto	i2l2567
  5618  0014C8                     i2u264_40:
  5619  0014C8  0E01               	movlw	1
  5620  0014CA  261D               	addwf	i2___fldiv@b^0,f,c
  5621  0014CC  0E00               	movlw	0
  5622  0014CE  221E               	addwfc	(i2___fldiv@b+1)^0,f,c
  5623  0014D0  221F               	addwfc	(i2___fldiv@b+2)^0,f,c
  5624  0014D2  2220               	addwfc	(i2___fldiv@b+3)^0,f,c
  5625  0014D4  A020               	btfss	(i2___fldiv@b+3)^0,0,c
  5626  0014D6  EF6F  F00A         	goto	i2u265_41
  5627  0014DA  EF71  F00A         	goto	i2u265_40
  5628  0014DE                     i2u265_41:
  5629  0014DE  EF88  F00A         	goto	i2l2567
  5630  0014E2                     i2u265_40:
  5631  0014E2  C01D  F025         	movff	i2___fldiv@b,??i2___fldiv
  5632  0014E6  C01E  F026         	movff	i2___fldiv@b+1,??i2___fldiv+1
  5633  0014EA  C01F  F027         	movff	i2___fldiv@b+2,??i2___fldiv+2
  5634  0014EE  C020  F028         	movff	i2___fldiv@b+3,??i2___fldiv+3
  5635  0014F2  3428               	rlcf	(??i2___fldiv+3)^0,w,c
  5636  0014F4  3228               	rrcf	(??i2___fldiv+3)^0,f,c
  5637  0014F6  3227               	rrcf	(??i2___fldiv+2)^0,f,c
  5638  0014F8  3226               	rrcf	(??i2___fldiv+1)^0,f,c
  5639  0014FA  3225               	rrcf	??i2___fldiv^0,f,c
  5640  0014FC  C025  F01D         	movff	??i2___fldiv,i2___fldiv@b
  5641  001500  C026  F01E         	movff	??i2___fldiv+1,i2___fldiv@b+1
  5642  001504  C027  F01F         	movff	??i2___fldiv+2,i2___fldiv@b+2
  5643  001508  C028  F020         	movff	??i2___fldiv+3,i2___fldiv@b+3
  5644  00150C  4A2E               	infsnz	i2___fldiv@new_exp^0,f,c
  5645  00150E  2A2F               	incf	(i2___fldiv@new_exp+1)^0,f,c
  5646  001510                     i2l2567:
  5647  001510  BE2F               	btfsc	(i2___fldiv@new_exp+1)^0,7,c
  5648  001512  EF93  F00A         	goto	i2u266_41
  5649  001516  502F               	movf	(i2___fldiv@new_exp+1)^0,w,c
  5650  001518  E108               	bnz	i2u266_40
  5651  00151A  282E               	incf	i2___fldiv@new_exp^0,w,c
  5652  00151C  A0D8               	btfss	status,0,c
  5653  00151E  EF93  F00A         	goto	i2u266_41
  5654  001522  EF95  F00A         	goto	i2u266_40
  5655  001526                     i2u266_41:
  5656  001526  EFA0  F00A         	goto	i2l2571
  5657  00152A                     i2u266_40:
  5658  00152A  0E00               	movlw	0
  5659  00152C  6E2F               	movwf	(i2___fldiv@new_exp+1)^0,c
  5660  00152E  682E               	setf	i2___fldiv@new_exp^0,c
  5661  001530  0E00               	movlw	0
  5662  001532  6E1D               	movwf	i2___fldiv@b^0,c
  5663  001534  0E00               	movlw	0
  5664  001536  6E1E               	movwf	(i2___fldiv@b+1)^0,c
  5665  001538  0E00               	movlw	0
  5666  00153A  6E1F               	movwf	(i2___fldiv@b+2)^0,c
  5667  00153C  0E00               	movlw	0
  5668  00153E  6E20               	movwf	(i2___fldiv@b+3)^0,c
  5669  001540                     i2l2571:
  5670  001540  BE2F               	btfsc	(i2___fldiv@new_exp+1)^0,7,c
  5671  001542  EFAD  F00A         	goto	i2u267_40
  5672  001546  502F               	movf	(i2___fldiv@new_exp+1)^0,w,c
  5673  001548  E106               	bnz	i2u267_41
  5674  00154A  042E               	decf	i2___fldiv@new_exp^0,w,c
  5675  00154C  B0D8               	btfsc	status,0,c
  5676  00154E  EFAB  F00A         	goto	i2u267_41
  5677  001552  EFAD  F00A         	goto	i2u267_40
  5678  001556                     i2u267_41:
  5679  001556  EFBB  F00A         	goto	i2l2575
  5680  00155A                     i2u267_40:
  5681  00155A  0E00               	movlw	0
  5682  00155C  6E2F               	movwf	(i2___fldiv@new_exp+1)^0,c
  5683  00155E  0E00               	movlw	0
  5684  001560  6E2E               	movwf	i2___fldiv@new_exp^0,c
  5685  001562  0E00               	movlw	0
  5686  001564  6E1D               	movwf	i2___fldiv@b^0,c
  5687  001566  0E00               	movlw	0
  5688  001568  6E1E               	movwf	(i2___fldiv@b+1)^0,c
  5689  00156A  0E00               	movlw	0
  5690  00156C  6E1F               	movwf	(i2___fldiv@b+2)^0,c
  5691  00156E  0E00               	movlw	0
  5692  001570  6E20               	movwf	(i2___fldiv@b+3)^0,c
  5693  001572  0E00               	movlw	0
  5694  001574  6E2D               	movwf	i2___fldiv@sign^0,c
  5695  001576                     i2l2575:
  5696  001576  C02E  F034         	movff	i2___fldiv@new_exp,i2___fldiv@bexp
  5697  00157A  A034               	btfss	i2___fldiv@bexp^0,0,c
  5698  00157C  EFC2  F00A         	goto	i2u268_41
  5699  001580  EFC4  F00A         	goto	i2u268_40
  5700  001584                     i2u268_41:
  5701  001584  EFC7  F00A         	goto	i2l2581
  5702  001588                     i2u268_40:
  5703  001588  8E1F               	bsf	(i2___fldiv@b+2)^0,7,c
  5704  00158A  EFC8  F00A         	goto	i2l2583
  5705  00158E                     i2l2581:
  5706  00158E  9E1F               	bcf	(i2___fldiv@b+2)^0,7,c
  5707  001590                     i2l2583:
  5708  001590  90D8               	bcf	status,0,c
  5709  001592  3034               	rrcf	i2___fldiv@bexp^0,w,c
  5710  001594  6E20               	movwf	(i2___fldiv@b+3)^0,c
  5711  001596  EF7E  F009         	goto	i2l2497
  5712  00159A                     i2l730:
  5713  00159A  0012               	return		;funcret
  5714  00159C                     __end_ofi2___fldiv:
  5715                           	callstack 0
  5716                           
  5717 ;; *************** function i2___aldiv *****************
  5718 ;; Defined at:
  5719 ;;		line 7 in file "C:\Program Files\Microchip\xc8\v2.32\pic\sources\c99\common\aldiv.c"
  5720 ;; Parameters:    Size  Location     Type
  5721 ;;  dividend        4    0[COMRAM] long 
  5722 ;;  divisor         4    4[COMRAM] long 
  5723 ;; Auto vars:     Size  Location     Type
  5724 ;;  quotient        4   10[COMRAM] long 
  5725 ;;  sign            1    9[COMRAM] unsigned char 
  5726 ;;  counter         1    8[COMRAM] unsigned char 
  5727 ;; Return value:  Size  Location     Type
  5728 ;;                  4    0[COMRAM] long 
  5729 ;; Registers used:
  5730 ;;		wreg, status,2, status,0
  5731 ;; Tracked objects:
  5732 ;;		On entry : 0/0
  5733 ;;		On exit  : 0/0
  5734 ;;		Unchanged: 0/0
  5735 ;; Data sizes:     COMRAM   BANK0   BANK1   BANK2   BANK3   BANK4   BANK5
  5736 ;;      Params:         8       0       0       0       0       0       0
  5737 ;;      Locals:         6       0       0       0       0       0       0
  5738 ;;      Temps:          0       0       0       0       0       0       0
  5739 ;;      Totals:        14       0       0       0       0       0       0
  5740 ;;Total ram usage:       14 bytes
  5741 ;; Hardware stack levels used: 1
  5742 ;; This function calls:
  5743 ;;		Nothing
  5744 ;; This function is called by:
  5745 ;;		i2_PWM1_Duty
  5746 ;; This function uses a non-reentrant model
  5747 ;;
  5748                           
  5749                           	psect	text24
  5750  001D78                     __ptext24:
  5751                           	callstack 0
  5752  001D78                     i2___aldiv:
  5753                           	callstack 26
  5754  001D78  0E00               	movlw	0
  5755  001D7A  6E0A               	movwf	i2___aldiv@sign^0,c
  5756  001D7C  BE08               	btfsc	(i2___aldiv@divisor+3)^0,7,c
  5757  001D7E  EFC5  F00E         	goto	i2u233_40
  5758  001D82  EFC3  F00E         	goto	i2u233_41
  5759  001D86                     i2u233_41:
  5760  001D86  EFCF  F00E         	goto	i2l2373
  5761  001D8A                     i2u233_40:
  5762  001D8A  1E08               	comf	(i2___aldiv@divisor+3)^0,f,c
  5763  001D8C  1E07               	comf	(i2___aldiv@divisor+2)^0,f,c
  5764  001D8E  1E06               	comf	(i2___aldiv@divisor+1)^0,f,c
  5765  001D90  6C05               	negf	i2___aldiv@divisor^0,c
  5766  001D92  0E00               	movlw	0
  5767  001D94  2206               	addwfc	(i2___aldiv@divisor+1)^0,f,c
  5768  001D96  2207               	addwfc	(i2___aldiv@divisor+2)^0,f,c
  5769  001D98  2208               	addwfc	(i2___aldiv@divisor+3)^0,f,c
  5770  001D9A  0E01               	movlw	1
  5771  001D9C  6E0A               	movwf	i2___aldiv@sign^0,c
  5772  001D9E                     i2l2373:
  5773  001D9E  BE04               	btfsc	(i2___aldiv@dividend+3)^0,7,c
  5774  001DA0  EFD6  F00E         	goto	i2u234_40
  5775  001DA4  EFD4  F00E         	goto	i2u234_41
  5776  001DA8                     i2u234_41:
  5777  001DA8  EFE0  F00E         	goto	i2l2379
  5778  001DAC                     i2u234_40:
  5779  001DAC  1E04               	comf	(i2___aldiv@dividend+3)^0,f,c
  5780  001DAE  1E03               	comf	(i2___aldiv@dividend+2)^0,f,c
  5781  001DB0  1E02               	comf	(i2___aldiv@dividend+1)^0,f,c
  5782  001DB2  6C01               	negf	i2___aldiv@dividend^0,c
  5783  001DB4  0E00               	movlw	0
  5784  001DB6  2202               	addwfc	(i2___aldiv@dividend+1)^0,f,c
  5785  001DB8  2203               	addwfc	(i2___aldiv@dividend+2)^0,f,c
  5786  001DBA  2204               	addwfc	(i2___aldiv@dividend+3)^0,f,c
  5787  001DBC  0E01               	movlw	1
  5788  001DBE  1A0A               	xorwf	i2___aldiv@sign^0,f,c
  5789  001DC0                     i2l2379:
  5790  001DC0  0E00               	movlw	0
  5791  001DC2  6E0B               	movwf	i2___aldiv@quotient^0,c
  5792  001DC4  0E00               	movlw	0
  5793  001DC6  6E0C               	movwf	(i2___aldiv@quotient+1)^0,c
  5794  001DC8  0E00               	movlw	0
  5795  001DCA  6E0D               	movwf	(i2___aldiv@quotient+2)^0,c
  5796  001DCC  0E00               	movlw	0
  5797  001DCE  6E0E               	movwf	(i2___aldiv@quotient+3)^0,c
  5798  001DD0  5005               	movf	i2___aldiv@divisor^0,w,c
  5799  001DD2  1006               	iorwf	(i2___aldiv@divisor+1)^0,w,c
  5800  001DD4  1007               	iorwf	(i2___aldiv@divisor+2)^0,w,c
  5801  001DD6  1008               	iorwf	(i2___aldiv@divisor+3)^0,w,c
  5802  001DD8  B4D8               	btfsc	status,2,c
  5803  001DDA  EFF1  F00E         	goto	i2u235_41
  5804  001DDE  EFF3  F00E         	goto	i2u235_40
  5805  001DE2                     i2u235_41:
  5806  001DE2  EF29  F00F         	goto	i2l2401
  5807  001DE6                     i2u235_40:
  5808  001DE6  0E01               	movlw	1
  5809  001DE8  6E09               	movwf	i2___aldiv@counter^0,c
  5810  001DEA  EFFD  F00E         	goto	i2l2387
  5811  001DEE                     i2l2385:
  5812  001DEE  90D8               	bcf	status,0,c
  5813  001DF0  3605               	rlcf	i2___aldiv@divisor^0,f,c
  5814  001DF2  3606               	rlcf	(i2___aldiv@divisor+1)^0,f,c
  5815  001DF4  3607               	rlcf	(i2___aldiv@divisor+2)^0,f,c
  5816  001DF6  3608               	rlcf	(i2___aldiv@divisor+3)^0,f,c
  5817  001DF8  2A09               	incf	i2___aldiv@counter^0,f,c
  5818  001DFA                     i2l2387:
  5819  001DFA  AE08               	btfss	(i2___aldiv@divisor+3)^0,7,c
  5820  001DFC  EF02  F00F         	goto	i2u236_41
  5821  001E00  EF04  F00F         	goto	i2u236_40
  5822  001E04                     i2u236_41:
  5823  001E04  EFF7  F00E         	goto	i2l2385
  5824  001E08                     i2u236_40:
  5825  001E08                     i2l2389:
  5826  001E08  90D8               	bcf	status,0,c
  5827  001E0A  360B               	rlcf	i2___aldiv@quotient^0,f,c
  5828  001E0C  360C               	rlcf	(i2___aldiv@quotient+1)^0,f,c
  5829  001E0E  360D               	rlcf	(i2___aldiv@quotient+2)^0,f,c
  5830  001E10  360E               	rlcf	(i2___aldiv@quotient+3)^0,f,c
  5831  001E12  5005               	movf	i2___aldiv@divisor^0,w,c
  5832  001E14  5C01               	subwf	i2___aldiv@dividend^0,w,c
  5833  001E16  5006               	movf	(i2___aldiv@divisor+1)^0,w,c
  5834  001E18  5802               	subwfb	(i2___aldiv@dividend+1)^0,w,c
  5835  001E1A  5007               	movf	(i2___aldiv@divisor+2)^0,w,c
  5836  001E1C  5803               	subwfb	(i2___aldiv@dividend+2)^0,w,c
  5837  001E1E  5008               	movf	(i2___aldiv@divisor+3)^0,w,c
  5838  001E20  5804               	subwfb	(i2___aldiv@dividend+3)^0,w,c
  5839  001E22  A0D8               	btfss	status,0,c
  5840  001E24  EF16  F00F         	goto	i2u237_41
  5841  001E28  EF18  F00F         	goto	i2u237_40
  5842  001E2C                     i2u237_41:
  5843  001E2C  EF21  F00F         	goto	i2l2397
  5844  001E30                     i2u237_40:
  5845  001E30  5005               	movf	i2___aldiv@divisor^0,w,c
  5846  001E32  5E01               	subwf	i2___aldiv@dividend^0,f,c
  5847  001E34  5006               	movf	(i2___aldiv@divisor+1)^0,w,c
  5848  001E36  5A02               	subwfb	(i2___aldiv@dividend+1)^0,f,c
  5849  001E38  5007               	movf	(i2___aldiv@divisor+2)^0,w,c
  5850  001E3A  5A03               	subwfb	(i2___aldiv@dividend+2)^0,f,c
  5851  001E3C  5008               	movf	(i2___aldiv@divisor+3)^0,w,c
  5852  001E3E  5A04               	subwfb	(i2___aldiv@dividend+3)^0,f,c
  5853  001E40  800B               	bsf	i2___aldiv@quotient^0,0,c
  5854  001E42                     i2l2397:
  5855  001E42  90D8               	bcf	status,0,c
  5856  001E44  3208               	rrcf	(i2___aldiv@divisor+3)^0,f,c
  5857  001E46  3207               	rrcf	(i2___aldiv@divisor+2)^0,f,c
  5858  001E48  3206               	rrcf	(i2___aldiv@divisor+1)^0,f,c
  5859  001E4A  3205               	rrcf	i2___aldiv@divisor^0,f,c
  5860  001E4C  2E09               	decfsz	i2___aldiv@counter^0,f,c
  5861  001E4E  EF04  F00F         	goto	i2l2389
  5862  001E52                     i2l2401:
  5863  001E52  500A               	movf	i2___aldiv@sign^0,w,c
  5864  001E54  B4D8               	btfsc	status,2,c
  5865  001E56  EF2F  F00F         	goto	i2u238_41
  5866  001E5A  EF31  F00F         	goto	i2u238_40
  5867  001E5E                     i2u238_41:
  5868  001E5E  EF39  F00F         	goto	i2l2405
  5869  001E62                     i2u238_40:
  5870  001E62  1E0E               	comf	(i2___aldiv@quotient+3)^0,f,c
  5871  001E64  1E0D               	comf	(i2___aldiv@quotient+2)^0,f,c
  5872  001E66  1E0C               	comf	(i2___aldiv@quotient+1)^0,f,c
  5873  001E68  6C0B               	negf	i2___aldiv@quotient^0,c
  5874  001E6A  0E00               	movlw	0
  5875  001E6C  220C               	addwfc	(i2___aldiv@quotient+1)^0,f,c
  5876  001E6E  220D               	addwfc	(i2___aldiv@quotient+2)^0,f,c
  5877  001E70  220E               	addwfc	(i2___aldiv@quotient+3)^0,f,c
  5878  001E72                     i2l2405:
  5879  001E72  C00B  F001         	movff	i2___aldiv@quotient,?i2___aldiv
  5880  001E76  C00C  F002         	movff	i2___aldiv@quotient+1,?i2___aldiv+1
  5881  001E7A  C00D  F003         	movff	i2___aldiv@quotient+2,?i2___aldiv+2
  5882  001E7E  C00E  F004         	movff	i2___aldiv@quotient+3,?i2___aldiv+3
  5883  001E82  0012               	return		;funcret
  5884  001E84                     __end_ofi2___aldiv:
  5885                           	callstack 0
  5886                           
  5887                           	psect	rparam
  5888  0000                     
  5889                           	psect	temp
  5890  000063                     btemp:
  5891                           	callstack 0
  5892  000063                     	ds	1
  5893  0000                     int$flags	set	btemp
  5894  0000                     wtemp8	set	btemp+1
  5895  0000                     ttemp5	set	btemp+1
  5896  0000                     ttemp6	set	btemp+4
  5897  0000                     ttemp7	set	btemp+8
  5898                           
  5899                           	psect	idloc
  5900                           
  5901                           ;Config register IDLOC0 @ 0x200000
  5902                           ;	unspecified, using default values
  5903  200000                     	org	2097152
  5904  200000  FF                 	db	255
  5905                           
  5906                           ;Config register IDLOC1 @ 0x200001
  5907                           ;	unspecified, using default values
  5908  200001                     	org	2097153
  5909  200001  FF                 	db	255
  5910                           
  5911                           ;Config register IDLOC2 @ 0x200002
  5912                           ;	unspecified, using default values
  5913  200002                     	org	2097154
  5914  200002  FF                 	db	255
  5915                           
  5916                           ;Config register IDLOC3 @ 0x200003
  5917                           ;	unspecified, using default values
  5918  200003                     	org	2097155
  5919  200003  FF                 	db	255
  5920                           
  5921                           ;Config register IDLOC4 @ 0x200004
  5922                           ;	unspecified, using default values
  5923  200004                     	org	2097156
  5924  200004  FF                 	db	255
  5925                           
  5926                           ;Config register IDLOC5 @ 0x200005
  5927                           ;	unspecified, using default values
  5928  200005                     	org	2097157
  5929  200005  FF                 	db	255
  5930                           
  5931                           ;Config register IDLOC6 @ 0x200006
  5932                           ;	unspecified, using default values
  5933  200006                     	org	2097158
  5934  200006  FF                 	db	255
  5935                           
  5936                           ;Config register IDLOC7 @ 0x200007
  5937                           ;	unspecified, using default values
  5938  200007                     	org	2097159
  5939  200007  FF                 	db	255
  5940                           
  5941                           	psect	config
  5942                           
  5943                           ; Padding undefined space
  5944  300000                     	org	3145728
  5945  300000  FF                 	db	255
  5946                           
  5947                           ;Config register CONFIG1H @ 0x300001
  5948                           ;	Oscillator Selection bits
  5949                           ;	OSC = RCIO6, External RC oscillator, port function on RA6
  5950                           ;	Fail-Safe Clock Monitor Enable bit
  5951                           ;	FCMEN = OFF, Fail-Safe Clock Monitor disabled
  5952                           ;	Internal/External Oscillator Switchover bit
  5953                           ;	IESO = OFF, Oscillator Switchover mode disabled
  5954  300001                     	org	3145729
  5955  300001  07                 	db	7
  5956                           
  5957                           ;Config register CONFIG2L @ 0x300002
  5958                           ;	Power-up Timer Enable bit
  5959                           ;	PWRT = OFF, PWRT disabled
  5960                           ;	Brown-out Reset Enable bits
  5961                           ;	BOREN = OFF, Brown-out Reset disabled in hardware and software
  5962                           ;	Brown Out Reset Voltage bits
  5963                           ;	BORV = 3, Minimum setting
  5964  300002                     	org	3145730
  5965  300002  19                 	db	25
  5966                           
  5967                           ;Config register CONFIG2H @ 0x300003
  5968                           ;	Watchdog Timer Enable bit
  5969                           ;	WDT = OFF, WDT disabled (control is placed on the SWDTEN bit)
  5970                           ;	Watchdog Timer Postscale Select bits
  5971                           ;	WDTPS = 32768, 1:32768
  5972  300003                     	org	3145731
  5973  300003  1E                 	db	30
  5974                           
  5975                           ; Padding undefined space
  5976  300004                     	org	3145732
  5977  300004  FF                 	db	255
  5978                           
  5979                           ;Config register CONFIG3H @ 0x300005
  5980                           ;	CCP2 MUX bit
  5981                           ;	CCP2MX = PORTC, CCP2 input/output is multiplexed with RC1
  5982                           ;	PORTB A/D Enable bit
  5983                           ;	PBADEN = OFF, PORTB<4:0> pins are configured as digital I/O on Reset
  5984                           ;	Low-Power Timer1 Oscillator Enable bit
  5985                           ;	LPT1OSC = OFF, Timer1 configured for higher power operation
  5986                           ;	MCLR Pin Enable bit
  5987                           ;	MCLRE = OFF, RE3 input pin enabled; MCLR disabled
  5988  300005                     	org	3145733
  5989  300005  01                 	db	1
  5990                           
  5991                           ;Config register CONFIG4L @ 0x300006
  5992                           ;	Stack Full/Underflow Reset Enable bit
  5993                           ;	STVREN = OFF, Stack full/underflow will not cause Reset
  5994                           ;	Single-Supply ICSP Enable bit
  5995                           ;	LVP = OFF, Single-Supply ICSP disabled
  5996                           ;	Extended Instruction Set Enable bit
  5997                           ;	XINST = OFF, Instruction set extension and Indexed Addressing mode disabled (Legacy mo
      +                          de)
  5998                           ;	Background Debugger Enable bit
  5999                           ;	DEBUG = 0x1, unprogrammed default
  6000  300006                     	org	3145734
  6001  300006  80                 	db	128
  6002                           
  6003                           ; Padding undefined space
  6004  300007                     	org	3145735
  6005  300007  FF                 	db	255
  6006                           
  6007                           ;Config register CONFIG5L @ 0x300008
  6008                           ;	Code Protection bit
  6009                           ;	CP0 = OFF, Block 0 (000800-001FFFh) not code-protected
  6010                           ;	Code Protection bit
  6011                           ;	CP1 = OFF, Block 1 (002000-003FFFh) not code-protected
  6012                           ;	Code Protection bit
  6013                           ;	CP2 = OFF, Block 2 (004000-005FFFh) not code-protected
  6014                           ;	Code Protection bit
  6015                           ;	CP3 = OFF, Block 3 (006000-007FFFh) not code-protected
  6016  300008                     	org	3145736
  6017  300008  0F                 	db	15
  6018                           
  6019                           ;Config register CONFIG5H @ 0x300009
  6020                           ;	Boot Block Code Protection bit
  6021                           ;	CPB = OFF, Boot block (000000-0007FFh) not code-protected
  6022                           ;	Data EEPROM Code Protection bit
  6023                           ;	CPD = OFF, Data EEPROM not code-protected
  6024  300009                     	org	3145737
  6025  300009  C0                 	db	192
  6026                           
  6027                           ;Config register CONFIG6L @ 0x30000A
  6028                           ;	Write Protection bit
  6029                           ;	WRT0 = OFF, Block 0 (000800-001FFFh) not write-protected
  6030                           ;	Write Protection bit
  6031                           ;	WRT1 = OFF, Block 1 (002000-003FFFh) not write-protected
  6032                           ;	Write Protection bit
  6033                           ;	WRT2 = OFF, Block 2 (004000-005FFFh) not write-protected
  6034                           ;	Write Protection bit
  6035                           ;	WRT3 = OFF, Block 3 (006000-007FFFh) not write-protected
  6036  30000A                     	org	3145738
  6037  30000A  0F                 	db	15
  6038                           
  6039                           ;Config register CONFIG6H @ 0x30000B
  6040                           ;	Configuration Register Write Protection bit
  6041                           ;	WRTC = OFF, Configuration registers (300000-3000FFh) not write-protected
  6042                           ;	Boot Block Write Protection bit
  6043                           ;	WRTB = OFF, Boot block (000000-0007FFh) not write-protected
  6044                           ;	Data EEPROM Write Protection bit
  6045                           ;	WRTD = OFF, Data EEPROM not write-protected
  6046  30000B                     	org	3145739
  6047  30000B  E0                 	db	224
  6048                           
  6049                           ;Config register CONFIG7L @ 0x30000C
  6050                           ;	Table Read Protection bit
  6051                           ;	EBTR0 = OFF, Block 0 (000800-001FFFh) not protected from table reads executed in other
      +                           blocks
  6052                           ;	Table Read Protection bit
  6053                           ;	EBTR1 = OFF, Block 1 (002000-003FFFh) not protected from table reads executed in other
      +                           blocks
  6054                           ;	Table Read Protection bit
  6055                           ;	EBTR2 = OFF, Block 2 (004000-005FFFh) not protected from table reads executed in other
      +                           blocks
  6056                           ;	Table Read Protection bit
  6057                           ;	EBTR3 = OFF, Block 3 (006000-007FFFh) not protected from table reads executed in other
      +                           blocks
  6058  30000C                     	org	3145740
  6059  30000C  0F                 	db	15
  6060                           
  6061                           ;Config register CONFIG7H @ 0x30000D
  6062                           ;	Boot Block Table Read Protection bit
  6063                           ;	EBTRB = OFF, Boot block (000000-0007FFh) not protected from table reads executed in ot
      +                          her blocks
  6064  30000D                     	org	3145741
  6065  30000D  40                 	db	64
  6066                           tosu	equ	0xFFF
  6067                           tosh	equ	0xFFE
  6068                           tosl	equ	0xFFD
  6069                           stkptr	equ	0xFFC
  6070                           pclatu	equ	0xFFB
  6071                           pclath	equ	0xFFA
  6072                           pcl	equ	0xFF9
  6073                           tblptru	equ	0xFF8
  6074                           tblptrh	equ	0xFF7
  6075                           tblptrl	equ	0xFF6
  6076                           tablat	equ	0xFF5
  6077                           prodh	equ	0xFF4
  6078                           prodl	equ	0xFF3
  6079                           indf0	equ	0xFEF
  6080                           postinc0	equ	0xFEE
  6081                           postdec0	equ	0xFED
  6082                           preinc0	equ	0xFEC
  6083                           plusw0	equ	0xFEB
  6084                           fsr0h	equ	0xFEA
  6085                           fsr0l	equ	0xFE9
  6086                           wreg	equ	0xFE8
  6087                           indf1	equ	0xFE7
  6088                           postinc1	equ	0xFE6
  6089                           postdec1	equ	0xFE5
  6090                           preinc1	equ	0xFE4
  6091                           plusw1	equ	0xFE3
  6092                           fsr1h	equ	0xFE2
  6093                           fsr1l	equ	0xFE1
  6094                           bsr	equ	0xFE0
  6095                           indf2	equ	0xFDF
  6096                           postinc2	equ	0xFDE
  6097                           postdec2	equ	0xFDD
  6098                           preinc2	equ	0xFDC
  6099                           plusw2	equ	0xFDB
  6100                           fsr2h	equ	0xFDA
  6101                           fsr2l	equ	0xFD9
  6102                           status	equ	0xFD8

Data Sizes:
    Strings     14
    Constant    0
    Data        0
    BSS         6
    Persistent  0
    Stack       0

Auto Spaces:
    Space          Size  Autos    Used
    COMRAM          126     96      98
    BANK0           128    102     106
    BANK1           256      0       0
    BANK2           256      0       0
    BANK3           256      0       0
    BANK4           256      0       0
    BANK5           256      0       0

Pointer List with Targets:

    strlen@s	PTR const unsigned char  size(2) Largest target is 14
		 -> STR_1(CODE[14]), 

    strlen@a	PTR const unsigned char  size(2) Largest target is 14
		 -> STR_1(CODE[14]), 

    lcd_string@str	PTR unsigned char  size(2) Largest target is 14
		 -> STR_1(CODE[14]), 


Critical Paths under _main in COMRAM

    None.

Critical Paths under _funtion in COMRAM

    _funtion->i2_PWM1_Duty
    i2_PWM1_Duty->i2___fltol
    i2___xxtofl->i2___aldiv
    i2___fltol->i2___flmul
    i2___flmul->i2___fldiv
    i2___fldiv->i2___xxtofl

Critical Paths under _main in BANK0

    _main->_PWM1_Duty
    _lcd_string->_strlen
    _lcd_number->___awdiv
    _PWM1_Init->___aldiv
    _PWM1_Duty->___fltol
    ___xxtofl->___aldiv
    ___fltol->___flmul
    ___flmul->___fldiv
    ___fldiv->___xxtofl

Critical Paths under _funtion in BANK0

    None.

Critical Paths under _main in BANK1

    None.

Critical Paths under _funtion in BANK1

    None.

Critical Paths under _main in BANK2

    None.

Critical Paths under _funtion in BANK2

    None.

Critical Paths under _main in BANK3

    None.

Critical Paths under _funtion in BANK3

    None.

Critical Paths under _main in BANK4

    None.

Critical Paths under _funtion in BANK4

    None.

Critical Paths under _main in BANK5

    None.

Critical Paths under _funtion in BANK5

    None.

Call Graph Tables:

 ---------------------------------------------------------------------------------
 (Depth) Function   	        Calls       Base Space   Used Autos Params    Refs
 ---------------------------------------------------------------------------------
 (0) _main                                                 9     9      0    7870
                                             94 BANK0      8     8      0
                          _PWM1_Duty
                          _PWM1_Init
                         _PWM1_Start
            _PortB_Int_Configuration
               _Timer1_Configuration
                        _lcd_command
                         _lcd_number
                         _lcd_string
 ---------------------------------------------------------------------------------
 (1) _lcd_string                                           6     4      2     354
                                              4 BANK0      6     4      2
                           _lcd_char
                             _strlen
 ---------------------------------------------------------------------------------
 (2) _strlen                                               4     2      2     166
                                              0 BANK0      4     2      2
 ---------------------------------------------------------------------------------
 (1) _lcd_number                                           8     6      2    1687
                                              8 BANK0      8     6      2
                            ___awdiv
                             ___wmul
                           _lcd_char
 ---------------------------------------------------------------------------------
 (2) _lcd_char                                             2     2      0      22
                                              0 BANK0      2     2      0
 ---------------------------------------------------------------------------------
 (2) ___wmul                                               6     2      4     311
                                              0 BANK0      6     2      4
 ---------------------------------------------------------------------------------
 (2) ___awdiv                                              8     4      4     908
                                              0 BANK0      8     4      4
 ---------------------------------------------------------------------------------
 (1) _lcd_command                                          2     2      0      22
                                              0 BANK0      2     2      0
 ---------------------------------------------------------------------------------
 (1) _Timer1_Configuration                                 0     0      0       0
 ---------------------------------------------------------------------------------
 (1) _PortB_Int_Configuration                              0     0      0       0
 ---------------------------------------------------------------------------------
 (1) _PWM1_Start                                           0     0      0       0
 ---------------------------------------------------------------------------------
 (1) _PWM1_Init                                            8     4      4     724
                                             14 BANK0      8     4      4
                            ___aldiv
 ---------------------------------------------------------------------------------
 (1) _PWM1_Duty                                            6     4      2    4991
                                             88 BANK0      6     4      2
                            ___aldiv
                            ___fldiv
                            ___flmul
                            ___fltol
                           ___xxtofl
 ---------------------------------------------------------------------------------
 (2) ___xxtofl                                            14    10      4     474
                                             14 BANK0     14    10      4
                            ___aldiv (ARG)
 ---------------------------------------------------------------------------------
 (2) ___fltol                                             10     6      4     305
                                             78 BANK0     10     6      4
                            ___aldiv (ARG)
                            ___fldiv (ARG)
                            ___flmul (ARG)
                           ___xxtofl (ARG)
 ---------------------------------------------------------------------------------
 (2) ___flmul                                             25    17      8    1744
                                             53 BANK0     25    17      8
                            ___aldiv (ARG)
                            ___fldiv (ARG)
                           ___xxtofl (ARG)
 ---------------------------------------------------------------------------------
 (2) ___fldiv                                             25    17      8    1399
                                             28 BANK0     25    17      8
                           ___xxtofl (ARG)
 ---------------------------------------------------------------------------------
 (2) ___aldiv                                             14     6      8     604
                                              0 BANK0     14     6      8
 ---------------------------------------------------------------------------------
 Estimated maximum stack depth 2
 ---------------------------------------------------------------------------------
 (Depth) Function   	        Calls       Base Space   Used Autos Params    Refs
 ---------------------------------------------------------------------------------
 (3) _funtion                                              2     2      0    3917
                                             94 COMRAM     2     2      0
                        i2_PWM1_Duty
 ---------------------------------------------------------------------------------
 (4) i2_PWM1_Duty                                          6     4      2    3917
                                             88 COMRAM     6     4      2
                          i2___aldiv
                          i2___fldiv
                          i2___flmul
                          i2___fltol
                         i2___xxtofl
 ---------------------------------------------------------------------------------
 (5) i2___xxtofl                                          14    10      4     374
                                             14 COMRAM    14    10      4
                          i2___aldiv (ARG)
 ---------------------------------------------------------------------------------
 (5) i2___fltol                                           10     6      4     255
                                             78 COMRAM    10     6      4
                          i2___aldiv (ARG)
                          i2___fldiv (ARG)
                          i2___flmul (ARG)
                         i2___xxtofl (ARG)
 ---------------------------------------------------------------------------------
 (5) i2___flmul                                           25    17      8    1518
                                             53 COMRAM    25    17      8
                          i2___aldiv (ARG)
                          i2___fldiv (ARG)
                         i2___xxtofl (ARG)
 ---------------------------------------------------------------------------------
 (5) i2___fldiv                                           25    17      8    1173
                                             28 COMRAM    25    17      8
                         i2___xxtofl (ARG)
 ---------------------------------------------------------------------------------
 (5) i2___aldiv                                           14     6      8     352
                                              0 COMRAM    14     6      8
 ---------------------------------------------------------------------------------
 Estimated maximum stack depth 5
 ---------------------------------------------------------------------------------

 Call Graph Graphs:

 _main (ROOT)
   _PWM1_Duty
     ___aldiv
     ___fldiv
       ___xxtofl (ARG)
         ___aldiv (ARG)
     ___flmul
       ___aldiv (ARG)
       ___fldiv (ARG)
       ___xxtofl (ARG)
     ___fltol
       ___aldiv (ARG)
       ___fldiv (ARG)
       ___flmul (ARG)
       ___xxtofl (ARG)
     ___xxtofl
   _PWM1_Init
     ___aldiv
   _PWM1_Start
   _PortB_Int_Configuration
   _Timer1_Configuration
   _lcd_command
   _lcd_number
     ___awdiv
     ___wmul
     _lcd_char
   _lcd_string
     _lcd_char
     _strlen

 _funtion (ROOT)
   i2_PWM1_Duty
     i2___aldiv
     i2___fldiv
       i2___xxtofl (ARG)
         i2___aldiv (ARG)
     i2___flmul
       i2___aldiv (ARG)
       i2___fldiv (ARG)
       i2___xxtofl (ARG)
     i2___fltol
       i2___aldiv (ARG)
       i2___fldiv (ARG)
       i2___flmul (ARG)
       i2___xxtofl (ARG)
     i2___xxtofl

 Address spaces:
Name               Size   Autos  Total    Cost      Usage
BIGRAM             5FF      0       0      17        0.0%
EEDATA             100      0       0       0        0.0%
BITBANK5           100      0       0      16        0.0%
BANK5              100      0       0      14        0.0%
BITBANK4           100      0       0      12        0.0%
BANK4              100      0       0      13        0.0%
BITBANK3           100      0       0      10        0.0%
BANK3              100      0       0      11        0.0%
BITBANK2           100      0       0       8        0.0%
BANK2              100      0       0       9        0.0%
BITBANK1           100      0       0       6        0.0%
BANK1              100      0       0       7        0.0%
BITBANK0            80      0       0       4        0.0%
BANK0               80     66      6A       5       82.8%
BITCOMRAM           7E      0       0       0        0.0%
COMRAM              7E     60      62       1       77.8%
BITSFR               0      0       0     200        0.0%
SFR                  0      0       0     200        0.0%
STACK                0      0       0       2        0.0%
NULL                 0      0       0       0        0.0%
ABS                  0      0      CC      15        0.0%
DATA                 0      0      CC       3        0.0%
CODE                 0      0       0       0        0.0%


Microchip Technology PIC18 Macro Assembler V2.32 build 20210201212658 
Symbol Table                                                                                   Mon Apr 05 21:18:22 2021

                    ___fldiv@aexp 00B4                      ___fldiv@bexp 00B3  
                    lcd_char@data 0081                      ___fldiv@sign 00AC  
                              l71 2502                                l80 23B0  
                              l74 2508                                l90 251C  
                              l84 1B56                                l76 250C  
                              l77 2510                      ___awdiv@sign 0085  
             ___wmul@multiplicand 0082                               l126 24AC  
                             l135 2406                               l129 2478  
                             l145 2192                               l227 1D76  
                             l139 20D6                               l148 24D4  
                             l445 1F8A                               l730 1200  
                             l810 168E                               l803 15F6  
                             l379 233E                               l732 1060  
                             l741 10A6                               l806 1752  
                             l743 111E                               l735 1024  
                             l744 110C                               l817 16EA  
                             l825 2444                               l762 06D6  
                             l771 0944                               l772 0932  
                             l766 0A3A                               l769 08CC  
                             l779 09FC                               _PR2 000FCB  
                     i2___fldiv@a 0021                       i2___fldiv@b 001D  
                      i2___xxtofl 1754                               wreg 000FE8  
                     i2___flmul@a 003A                       i2___flmul@b 0036  
               lcd_number@num_div 008E                      ___flmul@aexp 00C6  
                    ___flmul@bexp 00C7                      ___flmul@sign 00C1  
                    ___flmul@temp 00CC                      ___flmul@prod 00C8  
                    ___fltol@exp1 00D7                              l2001 0F34  
                            l2003 0F4A                              l2021 0F9E  
                            l2005 0F5A                              l2013 0F7A  
                            l2101 0610                       main@cnt_pre 00E0  
                            l2031 0FF0                              l2023 0FB8  
                            l2015 0F8A                              l2007 0F62  
                            l2111 064E                              l2103 061E  
                            l2041 104C                              l2033 1000  
                            l2025 0FC8                              l2017 0F8A  
                            l2009 0F66                              l2201 0954  
                            l2121 0680                              l2113 065E  
                            l2105 062C                              l2051 108C  
                            l2043 104E                              l2035 1014  
                            l2027 0FD8                              l2211 09B6  
                            l2203 0960                              l2131 06C0  
                            l2123 068E                              l2115 0664  
                            l2107 062E                              l2061 10C8  
                            l2053 1096                              l2045 105E  
                            l2037 1022                              l2029 0FE8  
                            l2221 0A1E                              l2213 09CA  
                            l2205 096E                              l2141 070A  
                            l2133 06C6                              l2125 0690  
                            l2117 0674                              l2109 063E  
                            l2301 1F2A                              l2071 113A  
                            l2063 10D6                              l2055 10A4  
                            l2047 1070                              l2039 102E  
                            l2223 0A20                              l2215 09E4  
                            l2207 0998                              l2151 075A  
                            l2143 0716                              l2135 06E6  
                            l2127 06A0                              l2119 067A  
                            l2311 1F5A                              l2231 227A  
                            l2081 11A6                              l2073 1148  
                            l2065 1104                              l2049 1086  
                            l2057 10B6                              l2217 0A00  
                            l2225 0A26                              l2209 099C  
                            l2161 079C                              l2153 0766  
                            l2145 0720                              l2137 06F6  
                            l2129 06B0                              l2313 1F6A  
                            l2321 15B2                              l2241 22A8  
                            l2233 2280                              l2091 11F4  
                            l2083 11C0                              l2075 1172  
                            l2059 10C4                              l2227 0A2A  
                            l2219 0A10                              l2171 07FE  
                            l2163 07A8                              l2155 0772  
                            l2147 0736                              l2315 1F7A  
                            l2307 1F3E                              l2331 1630  
                            l2323 15C0                              l2251 22D6  
                            l2243 22B0                              l2235 228E  
                            l2093 11F6                              l2085 11DC  
                            l2069 112E                              l2077 1176  
                            l2181 0894                              l2173 080A  
                            l2165 07B8                              l2157 0780  
                            l2149 0742                              l2309 1F4A  
                            l2341 1684                              l2333 1638  
                            l2325 1606                              l2261 2310  
                            l2253 22DE                              l2245 22B4  
                            l2237 2296                              l2087 11E0  
                            l2079 1190                              l2191 08EA  
                            l2183 08B2                              l2175 0826  
                            l2167 07D2                              l2159 078C  
                            l2351 16FA                              l2343 16C0  
                            l2335 1644                              l2327 161C  
                            l2319 15A0                              l2271 2336  
                            l2263 2312                              l2255 22EC  
                            l2247 22BC                              l2239 229A  
                            l2089 11EE                              l2193 08EE  
                            l2185 08BC                              l2177 0850  
                            l2169 07E2                              l2281 1EB0  
                            l2361 1742                              l2353 16FE  
                            l2345 16CC                              l2337 1676  
                            l2265 2318                              l2257 22F2  
                            l2249 22CE                              l2195 08FC  
                            l2187 08CA                              l2179 0886  
                            l2291 1EFE                              l2283 1EDA  
                            l2275 1E84                              l2355 1722  
                            l2347 16DA                              l2339 1678  
                            l2259 2308                              l2267 231E  
                            l2197 092A                              l2189 08DC  
                            l2285 1EDC                              l2277 1E9C  
                            l2357 1732                              l2349 16F8  
                            l2269 232E                              l1901 2466  
                            l2287 1EEC                              l2359 1740  
                            l1903 2408                              l1921 1C70  
                            l2297 1F16                              l2289 1EF0  
                            l2801 2486                              l1913 24AE  
                            l1905 2414                              l1931 1CB0  
                            l1923 1C7E                              l2299 1F20  
                            l2803 2488                              l1915 24CC  
                            l2811 209C                              l1907 241A  
                            l1941 1CEE                              l1933 1CB4  
                            l1925 1C8E                              l2805 2498  
                            l2821 2112                              l2813 20A4  
                            l1909 2436                              l2901 21B6  
                            l1951 1D36                              l1943 1CFC  
                            l1935 1CC4                              l1927 1C92  
                            l1919 1C6A                              l2807 249A  
                            l2823 212E                              l2831 23B2  
                            l2911 21EC                              l2903 21B6  
                            l1953 1D40                              l1945 1D06  
                            l1937 1CDA                              l1929 1CA0  
                            l2825 2138                              l2817 20BA  
                            l2809 2092                              l2833 23C0  
                            l2921 2204                              l2913 21FA  
                            l2905 21C4                              l1947 1D24  
                            l1939 1CE2                              l1955 1D46  
                            l1971 0E94                              l1963 0E66  
                            l1891 244A                              l2827 215A  
                            l2819 210A                              l2835 23DC  
                            l2931 2254                              l2923 2206  
                            l2915 21FE                              l2907 21D2  
                            l1957 1D56                              l1949 1D34  
                            l1981 0ECE                              l1973 0EA4  
                            l1965 0E74                              l2781 1A52  
                            l1893 244E                              l2829 2176  
                            l2837 23E2                              l2933 2260  
                            l2925 220A                              l2917 2200  
                            l2909 21D6                              l1959 1D66  
                            l1991 0EFA                              l1983 0ED4  
                            l1975 0EB4                              l1967 0E82  
                            l2783 1B26                              l2775 2340  
                            l2791 2514                              l2767 24F6  
                            l1895 2452                              l2935 2266  
                            l2927 2222                              l2919 2202  
                            l1993 0F0A                              l1985 0EDA  
                            l1977 0EB6                              l1969 0E84  
                            l2785 1B28                              l2777 23A0  
                            l2769 2504                              l2793 2518  
                            l1897 2454                              l2929 223C  
                            l1995 0F1A                              l1987 0EE8  
                            l1979 0EBE                              l2787 1B3C  
                            l2779 1A3E                              l2795 251A  
                            l1899 2464                              l1997 0F1C  
                            l1989 0EEA                              l2789 2512  
                            l2797 247E                              l2893 2194  
                            l1999 0F24                              l2799 2482  
                            l2895 21A4                              l2897 21AA  
                            l2899 21B0                              STR_1 0601  
                            u2000 08CA                              u2001 08C6  
                            u2010 08EA                              u2011 08E6  
                            u2020 08FC                              u2100 228E  
                            u2021 08F8                              u2101 228A  
                            u2030 092A                              u2110 22A8  
                            u2031 0926                              u2111 22A4  
                            u2040 0940                              u2200 1F3A  
                            u3000 1A52                              u2120 22CE  
                            u2041 093C                              u2201 1F36  
                            u3001 1A4E                              u2121 22CA  
                            u2050 0954                              u2210 1F5A  
                            u2130 22EC                              u2051 0950  
                            u2211 1F56                              u2131 22E8  
                            u2060 096E                              u2220 1F6A  
                            u2300 16F8                              u3020 1B3A  
                            u2140 2308                              u2061 096A  
                            u2221 1F66                              u2301 16F4  
                            u3021 1B34                              u2141 2304  
                            u2070 09B6                              u2310 1732  
                            u2230 15B2                              u2150 232E  
                            u2071 09B2                              u2311 172E  
                            u2231 15AE                              u3015 1A64  
                            u2151 232A                              u2080 09E4  
                            u2160 1E9C                              u2320 1740  
                            u2240 15C0                              u3040 20B6  
                            u2081 09E0                              u2161 1E98  
                            u2321 173C                              u2241 15BC  
                            u3041 20B2                              u2090 0A1E  
                            u2170 1ED0                              u2250 161C  
                            u3050 2106                              u1610 2436  
                            u2091 0A1A                              u2251 1618  
                            u3035 1B3C                              u3051 2102  
                            u1611 2432                              u1620 1C7E  
                            u1700 0EA4                              u2180 1EFE  
                            u2260 1672                              u3060 2192  
                            u1621 1C7A                              u1701 0EA0  
                            u2181 1EFA                              u2261 166E  
                            u3061 218E                              u1630 1CA0  
                            u1710 0EE8                              u2190 1F12  
                            u2270 16BC                              u3070 2406  
                            u1631 1C9C                              u1711 0EE4  
                            u2191 1F0E                              u2175 1EC6  
                            u2271 16B8                              u3071 2402  
                            u1640 1CDA                              u1800 1086  
                            u1720 0EFA                              u2280 16DA  
                            u1641 1CD6                              u1801 1082  
                            u1721 0EF6                              u2281 16D6  
                            u3217 222E                              u1650 1CFC  
                            u1810 10A4                              u1730 0F0A  
                            u2290 16EA                              u1651 1CF8  
                            u1811 10A0                              u1731 0F06  
                            u2291 16E6                              u3227 245C  
                            u1660 1D24                              u1900 11EE  
                            u1820 10C4                              u1740 0F4A  
                            u1661 1D20                              u1901 11EA  
                            u1821 10C0                              u1741 0F46  
                            u3237 246E                              u1670 1D56  
                            u1830 10D6                              u1750 0F8A  
                            u1910 062C                              u1671 1D52  
                            u1831 10D2                              u1751 0F86  
                            u1911 0628                              u3247 2490  
                            u1840 1104                              u1760 1000  
                            u1680 0E82                              u1920 063E  
                            u1841 1100                              u1761 0FFC  
                            u1681 0E7E                              u1921 063A  
                            u3257 24A2                              u1850 111A  
                            u1770 1022                              u1690 0E94  
                            u1930 064E                              u1851 1116  
                            u1771 101E                              u1691 0E90  
                            u1931 064A                              u1860 112E  
                            u1780 104C                              u1940 068E  
                            u1861 112A                              u1781 1048  
                            u1941 068A                              u1870 1148  
                            u1790 1070                              u1950 06A0  
                            u1871 1144                              u1791 106C  
                            u1951 069C                              u1880 1190  
                            u1960 06B0                              u1881 118C  
                            u1961 06AC                              u1890 11C0  
                            u1970 06E6                              u1891 11BC  
                            u1971 06E2                              u1980 06F6  
                            u1981 06F2                              u1990 0870  
                            u1995 0866                              u2985 2364  
                            u2995 2376                              i2l84 1C68  
                            _main 2194                              btemp 0063  
                            prodh 000FF4                              prodl 000FF3  
                            start 000E                       lcd_string@i 0088  
                    i2___fltol@f1 004F                   ___fldiv@new_exp 00AD  
              lcd_number@num_test 008C                      ___param_bank 000000  
                   ___fltol@sign1 00D6                   __end_of___aldiv 1D78  
                           ?_main 0001                             _CCP1X 007DED  
                 __end_of___fldiv 1202                             _CCP1Y 007DEC  
                 __end_of___awdiv 2340                   __end_of___flmul 0A3C  
                 __end_of___fltol 1F8C                   ___awdiv@divisor 0082  
                           _T1CON 000FCD                             i2l103 1A30  
                           i2l107 1A32                             i2l227 1E82  
                           i2l445 2090                             i2l730 159A  
                           i2l810 1842                             i2l803 17AA  
                           i2l732 13FA                             i2l741 1440  
                           i2l806 1906                             i2l743 14B8  
                           i2l735 13BE                             i2l744 14A6  
                           i2l817 189E                             i2l762 0B00  
                           i2l771 0D6E                             i2l772 0D5C  
                           i2l766 0E64                             i2l769 0CF6  
                           i2l779 0E26                   ___awdiv@counter 0084  
                           _TMR1H 000FCF                             _TMR1L 000FCE  
                           _PORTB 000F81                             _PORTC 000F82  
                           _PORTD 000F83                             _TRISC 000F94  
                           _TRISD 000F95                __size_of_PWM1_Init 0072  
              __size_of_PWM1_Duty 011A                       ?_PWM1_Start 0001  
                   i2___fldiv@grs 0030                     i2___fldiv@rem 0029  
                 __end_of_funtion 1A3E                             _state 0061  
                           tablat 000FF5                             ttemp5 0064  
                           ttemp6 0067                             ttemp7 006B  
                           status 000FD8                             wtemp8 0064  
                   i2___flmul@grs 0043                __size_ofi2___aldiv 010C  
              __size_ofi2___fldiv 039A                __size_ofi2___flmul 042A  
              __size_ofi2___fltol 0106                   __initialization 24D6  
                    __end_of_main 227A                      ?i2_PWM1_Duty 0059  
                 i2PWM1_Duty@duty 0059             PWM1_Init@u32Frequency 008E  
            _Timer1_Configuration 24F6                            ??_main 00DE  
                   __activetblptr 000001                       ?i2___xxtofl 000F  
                          _CCP1M2 007DEA                            _CCP1M3 007DEB  
                          _CCPR1L 000FBE                  ___awdiv@dividend 0080  
                  i2___aldiv@sign 000A                            i2l2401 1E52  
                          i2l2403 1E62                            i2l2411 1FA2  
                          i2l2405 1E72                            i2l2421 1FF2  
                          i2l2511 1338                            i2l2503 1314  
                          i2l2431 201C                            i2l2423 1FF6  
                          i2l2415 1FB6                            i2l2521 138A  
                          i2l2513 1352                            i2l2505 1324  
                          i2l2601 0A78                            i2l2441 2044  
                          i2l2433 2026                            i2l2425 2004  
                          i2l2417 1FE0                            i2l2409 1F8C  
                          i2l2371 1D9A                            i2l2531 13E6  
                          i2l2523 139A                            i2l2515 1362  
                          i2l2507 1324                            i2l2611 0AAA  
                          i2l2603 0A88                            i2l2443 2050  
                          i2l2435 2030                            i2l2419 1FE2  
                          i2l2381 1DD0                            i2l2373 1D9E  
                          i2l2365 1D78                            i2l2541 1426  
                          i2l2533 13E8                            i2l2525 13AE  
                          i2l2517 1372                            i2l2461 122E  
                          i2l2453 1202                            i2l2701 0DE0  
                          i2l2621 0AEA                            i2l2613 0AB8  
                          i2l2605 0A8E                            i2l2445 2060  
                          i2l2391 1E12                            i2l2383 1DE6  
                          i2l2375 1DAC                            i2l2367 1D7C  
                          i2l2551 1462                            i2l2543 1430  
                          i2l2535 13F8                            i2l2527 13BC  
                          i2l2519 1382                            i2l2471 1268  
                          i2l2463 123E                            i2l2455 120E  
                          i2l2711 0E48                            i2l2703 0DF4  
                          i2l2631 0B34                            i2l2623 0AF0  
                          i2l2615 0ABA                            i2l2607 0A9E  
                          i2l2447 2070                            i2l2393 1E30  
                          i2l2385 1DEE                            i2l2377 1DBC  
                          i2l2369 1D8A                            i2l2561 14D4  
                          i2l2553 1470                            i2l2545 143E  
                          i2l2537 140A                            i2l2529 13C8  
                          i2l2481 1294                            i2l2473 126E  
                          i2l2465 124E                            i2l2457 121C  
                          i2l2713 0E4A                            i2l2705 0E0E  
                          i2l2641 0B84                            i2l2633 0B40  
                          i2l2625 0B10                            i2l2617 0ACA  
                          i2l2609 0AA4                            i2l2449 2080  
                          i2l2721 1756                            i2l2395 1E40  
                          i2l2387 1DFA                            i2l2379 1DC0  
                          i2l2571 1540                            i2l2563 14E2  
                          i2l2555 149E                            i2l2539 1420  
                          i2l2547 1450                            i2l2491 12CE  
                          i2l2483 12A4                            i2l2475 1274  
                          i2l2467 1250                            i2l2459 121E  
                          i2l2707 0E2A                            i2l2715 0E50  
                          i2l2651 0BC6                            i2l2643 0B90  
                          i2l2635 0B4A                            i2l2627 0B20  
                          i2l2619 0ADA                            i2l2723 1766  
                          i2l2397 1E42                            i2l2389 1E08  
                          i2l2581 158E                            i2l2573 155A  
                          i2l2565 150C                            i2l2549 145E  
                          i2l2493 12E4                            i2l2485 12B4  
                          i2l2477 1282                            i2l2469 1258  
                          i2l2717 0E54                            i2l2709 0E3A  
                          i2l2661 0C28                            i2l2653 0BD2  
                          i2l2645 0B9C                            i2l2637 0B60  
                          i2l2741 182C                            i2l2733 17E4  
                          i2l2725 1774                            i2l2399 1E4C  
                          i2l2583 1590                            i2l2575 1576  
                          i2l2559 14C8                            i2l2567 1510  
                          i2l2495 12F4                            i2l2487 12B6  
                          i2l2479 1284                            i2l2671 0CBE  
                          i2l2663 0C34                            i2l2655 0BE2  
                          i2l2647 0BAA                            i2l2639 0B6C  
                          i2l2591 0A3C                            i2l2751 18AC  
                          i2l2743 1838                            i2l2735 17EC  
                          i2l2727 17BA                            i2l2577 157A  
                          i2l2569 152A                            i2l2497 12FC  
                          i2l2489 12BE                            i2l2681 0D14  
                          i2l2673 0CDC                            i2l2665 0C50  
                          i2l2657 0BFC                            i2l2649 0BB6  
                          i2l2593 0A48                            i2l2761 18F4  
                          i2l2753 18AE                            i2l2745 1874  
                          i2l2737 17F8                            i2l2729 17D0  
                          i2l2841 1B6A                            i2l2579 1588  
                          i2l2499 1300                            i2l2691 0D7E  
                          i2l2683 0D18                            i2l2675 0CE6  
                          i2l2667 0C7A                            i2l2659 0C0C  
                          i2l2595 0A56                            i2l2763 18F6  
                          i2l2755 18B2                            i2l2747 1880  
                          i2l2739 182A                            i2l2843 1C3C  
                          i2l2851 1920                            i2l2693 0D8A  
                          i2l2685 0D26                            i2l2677 0CF4  
                          i2l2669 0CB0                            i2l2597 0A58  
                          i2l2757 18D6                            i2l2749 188E  
                          i2l2845 1C3E                            i2l2861 1960  
                          i2l2853 192E                            i2l2695 0D98  
                          i2l2687 0D54                            i2l2679 0D06  
                          i2l2599 0A68                            i2l2759 18E6  
                          i2l2847 1C50                            i2l2839 1B58  
                          i2l2871 19A4                            i2l2855 1940  
                          i2l2863 196C                            i2l2697 0DC2  
                          i2l2881 19EC                            i2l2873 19B8  
                          i2l2865 197A                            i2l2857 1948  
                          i2l2849 1912                            i2l2699 0DC6  
                          i2l2883 19F4                            i2l2875 19C0  
                          i2l2867 198C                            i2l2859 1958  
                          i2l2891 1A30                            i2l2885 1A04  
                          i2l2869 1994                            i2l2877 19CA  
                          i2l2887 1A18                            i2l2879 19D8  
                          _INTCON 000FF2                            i2l2889 1A20  
                          _TMR2ON 007E52                            _TRISC2 007CA2  
                __end_of___xxtofl 1754                     lcd_number@num 0088  
                __end_of_lcd_char 247A              __size_of_lcd_command 0034  
               __end_of_PWM1_Init 23B2                 __end_of_PWM1_Duty 1B58  
                       ??___aldiv 0088                            ___wmul 24AE  
                       ??___fldiv 00A4                         ??___awdiv 0084  
             __size_of_PWM1_Start 000E                         ??___flmul 00BD  
                       ??___fltol 00D2                  ___awdiv@quotient 0086  
                  i2___fldiv@aexp 0035                    i2___fldiv@bexp 0034  
           ?_Timer1_Configuration 0001                            isa$std 000001  
                  i2___fldiv@sign 002D                            _strlen 2408  
               __end_ofi2___aldiv 1E84                 __end_ofi2___fldiv 159C  
               __end_ofi2___flmul 0E66                 __end_ofi2___fltol 2092  
                       ??_funtion 005F                      __mediumconst 0000  
                          tblptrh 000FF7                            tblptrl 000FF6  
                          tblptru 000FF8                    i2___flmul@aexp 0047  
                  i2___flmul@bexp 0048                    i2___flmul@sign 0042  
                  i2___flmul@temp 004D                    i2___flmul@prod 0049  
                    ___xxtofl@arg 0098                     lcd_string@str 0084  
                    ___xxtofl@exp 0097                      ___xxtofl@val 008E  
                      __accesstop 0080           __end_of__initialization 24E4  
                  i2___fltol@exp1 0058                     ___rparam_used 000001  
                      ___fltol@f1 00CE               __size_ofi2___xxtofl 01B4  
                  __pcstackCOMRAM 0001                        __pbssBANK0 00E6  
        ?_PortB_Int_Configuration 0001                   lcd_command@cmnd 0081  
                         ?___wmul 0080            ??_Timer1_Configuration 0080  
                         ?_strlen 0080                           _T2CKPS0 007E50  
                         _T2CKPS1 007E51              __size_ofi2_PWM1_Duty 0112  
                         _INTEDG0 007F8E                           _INTEDG1 007F8D  
                         _INTEDG2 007F8C                           _INTCON3 000FF0  
                       ?___xxtofl 008E                      ??_PWM1_Start 0080  
                      _lcd_number 2092                         ?_lcd_char 0001  
                      _lcd_string 23B2                 i2___aldiv@divisor 0005  
               i2___aldiv@counter 0009                           __Hparam 0000  
                         __Lparam 0000                           ___aldiv 1C6A  
                         ___fldiv 0E66                           ___awdiv 227A  
                         ___flmul 0610                           ___fltol 1E84  
                 __size_of___wmul 0028                __end_of_PWM1_Start 2512  
                    __psmallconst 0600                           __pcinit 24D6  
                         __ramtop 0600                           __ptext0 2194  
                         __ptext1 23B2                           __ptext2 2408  
                         __ptext3 2092                           __ptext4 2446  
                         __ptext5 24AE                           __ptext6 227A  
                         __ptext7 247A                           __ptext8 24F6  
                         __ptext9 2512                   __size_of_strlen 003E  
                    ??i2___xxtofl 0013                        ??___xxtofl 0092  
                         _funtion 0008                  ___aldiv@dividend 0080  
 __end_of_PortB_Int_Configuration 251E                        ??_lcd_char 0080  
                  __pintcode_body 1908              end_of_initialization 24E4  
                         int_func 1908                    i2___xxtofl@arg 0019  
                  i2___xxtofl@exp 0018                    i2___xxtofl@val 000F  
              __end_ofi2___xxtofl 1908                  ___aldiv@quotient 008A  
                         strlen@a 0082                           strlen@s 0080  
                       _PWM1_Init 2340                         _PWM1_Duty 1A3E  
                       _PORTBbits 000F81                         _PORTCbits 000F82  
                   ___xxtofl@sign 0096                         _TRISCbits 000F94  
                     ?_lcd_number 0088                       ___fldiv@grs 00AF  
                     ___fldiv@rem 00A8                   i2___fltol@sign1 0057  
                       i2___aldiv 1D78                       ?_lcd_string 0084  
                       i2___fldiv 1202                         i2___flmul 0A3C  
                       i2___fltol 1F8C             lcd_number@num_display 008A  
                     ___flmul@grs 00C2                        main@cnt_af 00E2  
                   ??_lcd_command 0080                  _u32TempFrequency 00E6  
                  __end_of___wmul 24D6                        ?_PWM1_Init 008E  
                      ?_PWM1_Duty 00D8                    __end_of_strlen 2446  
             start_initialization 24D6                        ?i2___aldiv 0001  
                      ?i2___fldiv 001D                        ?i2___flmul 0036  
                      ?i2___fltol 004F                          ??___wmul 0084  
             __size_of_lcd_number 0102  __size_of_PortB_Int_Configuration 000C  
             __end_of_lcd_command 24AE               __size_of_lcd_string 0056  
                        ??_strlen 0082                         ___fldiv@a 00A0  
                       ___fldiv@b 009C                         ___flmul@a 00B9  
                       ___flmul@b 00B5                       __pbssCOMRAM 0061  
                   __pcstackBANK0 0080                 __size_of___xxtofl 01B8  
               __size_of_lcd_char 0034                         __pintcode 0008  
                        ?___aldiv 0080                          ?___fldiv 009C  
                        ?___awdiv 0080                          ?___flmul 00B5  
                        ?___fltol 00CE                     ??i2_PWM1_Duty 005B  
                     ??_PWM1_Init 0092                       ??_PWM1_Duty 00DA  
   __size_of_Timer1_Configuration 000E                       __smallconst 0600  
                        ?_funtion 0001                       ??i2___aldiv 0009  
                     ??i2___fldiv 0025                       ??i2___flmul 003E  
                     ??i2___fltol 0053                   ___aldiv@divisor 0084  
                 ___aldiv@counter 0088                    ___wmul@product 0084  
                     _lcd_command 247A                          i2u310_40 1C4E  
                        i2u310_41 1C48                          i2u311_45 1C50  
                        i2u240_40 1FD6                          i2u320_40 1A18  
                        i2u312_40 1920                          i2u320_41 1A14  
                        i2u312_41 191C                          i2u240_45 1FCC  
                        i2u233_40 1D8A                          i2u241_40 2004  
                        i2u313_40 192E                          i2u233_41 1D86  
                        i2u241_41 2000                          i2u313_41 192A  
                        i2u234_40 1DAC                          i2u250_40 1294  
                        i2u242_40 2018                          i2u314_40 1940  
                        i2u234_41 1DA8                          i2u250_41 1290  
                        i2u242_41 2014                          i2u314_41 193C  
                        i2u235_40 1DE6                          i2u251_40 12A4  
                        i2u243_40 2040                          i2u315_40 197A  
                        i2u235_41 1DE2                          i2u251_41 12A0  
                        i2u243_41 203C                          i2u315_41 1976  
                        i2u236_40 1E08                          i2u260_40 145E  
                        i2u252_40 12E4                          i2u244_40 2060  
                        i2u308_40 1B6A                          i2u316_40 198C  
                        i2u236_41 1E04                          i2u260_41 145A  
                        i2u252_41 12E0                          i2u244_41 205C  
                        i2u308_41 1B66                          i2u316_41 1988  
                        i2u237_40 1E30                          i2u261_40 1470  
                        i2u253_40 1324                          i2u245_40 2070  
                        i2u317_40 19B8                          i2u237_41 1E2C  
                        i2u261_41 146C                          i2u253_41 1320  
                        i2u245_41 206C                          i2u317_41 19B4  
                        i2u309_45 1B7C                          i2u238_40 1E62  
                        i2u262_40 149E                          i2u254_40 139A  
                        i2u246_40 121C                          i2u270_40 0A68  
                        i2u318_40 19D8                          i2u238_41 1E5E  
                        i2u262_41 149A                          i2u254_41 1396  
                        i2u246_41 1218                          i2u270_41 0A64  
                        i2u318_41 19D4                          i2u263_40 14B4  
                        i2u255_40 13BC                          i2u247_40 122E  
                        i2u271_40 0A78                          i2u239_40 1FA2  
                        i2u319_40 19EC                          i2u263_41 14B0  
                        i2u255_41 13B8                          i2u247_41 122A  
                        i2u271_41 0A74                          i2u239_41 1F9E  
                        i2u319_41 19E8                          i2u264_40 14C8  
                        i2u256_40 13E6                          i2u248_40 123E  
                        i2u280_40 0D26                          i2u272_40 0AB8  
                        i2u264_41 14C4                          i2u256_41 13E2  
                        i2u248_41 123A                          i2u280_41 0D22  
                        i2u272_41 0AB4                          i2u265_40 14E2  
                        i2u257_40 140A                          i2u249_40 1282  
                        i2u281_40 0D54                          i2u273_40 0ACA  
                        i2u265_41 14DE                          i2u257_41 1406  
                        i2u249_41 127E                          i2u281_41 0D50  
                        i2u273_41 0AC6                          i2u266_40 152A  
                        i2u258_40 1420                          i2u282_40 0D6A  
                        i2u274_40 0ADA                          i2u290_40 17D0  
                   PWM1_Duty@duty 00D8                          i2u266_41 1526  
                        i2u258_41 141C                          i2u282_41 0D66  
                        i2u274_41 0AD6                          i2u290_41 17CC  
                        i2u267_40 155A                          i2u259_40 143E  
                        i2u283_40 0D7E                          i2u275_40 0B10  
                        i2u291_40 1826                          i2u267_41 1556  
                        i2u259_41 143A                          i2u283_41 0D7A  
                        i2u275_41 0B0C                          i2u291_41 1822  
                        i2u268_40 1588                          i2u284_40 0D98  
                        i2u276_40 0B20                          i2u292_40 1870  
                        i2u268_41 1584                          i2u284_41 0D94  
                        i2u276_41 0B1C                          i2u292_41 186C  
                        i2u285_40 0DE0                          i2u277_40 0C9A  
                        i2u269_40 0A56                          i2u293_40 188E  
                        i2u285_41 0DDC                          i2u269_41 0A52  
                        i2u293_41 188A                          i2u277_45 0C90  
                        i2u286_40 0E0E                          i2u278_40 0CF4  
                        i2u294_40 189E                          i2u286_41 0E0A  
                        i2u278_41 0CF0                          i2u294_41 189A  
                        i2u287_40 0E48                          i2u279_40 0D14  
                        i2u295_40 18AC                          i2u287_41 0E44  
                        i2u279_41 0D10                          i2u295_41 18A8  
                        i2u296_40 18E6                          i2u288_40 1766  
                        i2u296_41 18E2                          i2u288_41 1762  
                        i2u297_40 18F4                          i2u289_40 1774  
                        i2u297_41 18F0                          i2u289_41 1770  
               i2___fldiv@new_exp 002E                 ___wmul@multiplier 0080  
             __end_ofi2_PWM1_Duty 1C6A                      ??_lcd_number 008A  
                    ??_lcd_string 0086                       _INTCON3bits 000FF0  
              i2___aldiv@dividend 0001                          __Hrparam 0000  
                        __Lrparam 0000                      __Lsmallconst 0600  
         _PortB_Int_Configuration 2512                  __size_of___aldiv 010E  
              __end_of_lcd_number 2194                  __size_of___fldiv 039C  
                __size_of___awdiv 00C6                  __size_of___flmul 042C  
                __size_of___fltol 0108                __end_of_lcd_string 2408  
              i2___aldiv@quotient 000B                          ___xxtofl 159C  
                __size_of_funtion 1A36                          __ptext10 2504  
                        __ptext11 2340                          __ptext20 1754  
                        __ptext12 1A3E                          __ptext21 1F8C  
                        __ptext13 159C                          __ptext22 0A3C  
                        __ptext14 1E84                          __ptext23 1202  
                        __ptext15 0610                          __ptext24 1D78  
                        __ptext16 0E66                          __ptext17 1C6A  
                        __ptext19 1B58                          _lcd_char 2446  
                   __size_of_main 00E6                          isa$xinst 000000  
                        int$flags 0063                          main@rate 00E4  
                     i2_PWM1_Duty 1B58                        _INTCONbits 000FF2  
                        intlevel2 0000                   i2___xxtofl@sign 0017  
       ??_PortB_Int_Configuration 0080                      ___aldiv@sign 0089  
                      _PWM1_Start 2504      __end_of_Timer1_Configuration 2504  
                    ?_lcd_command 0001  
